Archive member included because of file (symbol)

c:/nds/Projects/Tutoriales/Tutorial1MenuInicial/nflib/lib\libnflib.a(nf_2d.o)
                              Engine.o (NF_Set2D)
c:/nds/Projects/Tutoriales/Tutorial1MenuInicial/nflib/lib\libnflib.a(nf_3d.o)
                              Engine.o (NF_Set3D)
c:/nds/Projects/Tutoriales/Tutorial1MenuInicial/nflib/lib\libnflib.a(nf_basic.o)
                              c:/nds/Projects/Tutoriales/Tutorial1MenuInicial/nflib/lib\libnflib.a(nf_2d.o) (NF_Error)
c:/nds/Projects/Tutoriales/Tutorial1MenuInicial/nflib/lib\libnflib.a(nf_sprite256.o)
                              Engine.o (NF_InitSpriteBuffers)
c:/nds/Projects/Tutoriales/Tutorial1MenuInicial/nflib/lib\libnflib.a(nf_sprite3d.o)
                              Engine.o (NF_Init3dSpriteSys)
c:/nds/Projects/Tutoriales/Tutorial1MenuInicial/nflib/lib\libnflib.a(nf_text.o)
                              Engine.o (NF_InitTextSys)
c:/nds/Projects/Tutoriales/Tutorial1MenuInicial/nflib/lib\libnflib.a(nf_tiledbg.o)
                              Engine.o (NF_InitTiledBgBuffers)
c:/nds/devkitPro/libnds/lib\libfilesystem.a(nitrofs.o)
                              c:/nds/Projects/Tutoriales/Tutorial1MenuInicial/nflib/lib\libnflib.a(nf_basic.o) (nitroFSInit)
c:/nds/devkitPro/libnds/lib\libfat.a(libfat.o)
                              c:/nds/Projects/Tutoriales/Tutorial1MenuInicial/nflib/lib\libnflib.a(nf_basic.o) (fatInitDefault)
c:/nds/devkitPro/libnds/lib\libfat.a(partition.o)
                              c:/nds/devkitPro/libnds/lib\libfat.a(libfat.o) (_FAT_partition_constructor)
c:/nds/devkitPro/libnds/lib\libfat.a(cache.o)
                              c:/nds/devkitPro/libnds/lib\libfat.a(partition.o) (_FAT_cache_constructor)
c:/nds/devkitPro/libnds/lib\libfat.a(directory.o)
                              c:/nds/devkitPro/libnds/lib\libfat.a(libfat.o) (_FAT_directory_getVolumeLabel)
c:/nds/devkitPro/libnds/lib\libfat.a(disc.o)
                              c:/nds/devkitPro/libnds/lib\libfat.a(libfat.o) (_FAT_disc_interfaces)
c:/nds/devkitPro/libnds/lib\libfat.a(fatdir.o)
                              c:/nds/devkitPro/libnds/lib\libfat.a(libfat.o) (_FAT_stat_r)
c:/nds/devkitPro/libnds/lib\libfat.a(fatfile.o)
                              c:/nds/devkitPro/libnds/lib\libfat.a(libfat.o) (_FAT_open_r)
c:/nds/devkitPro/libnds/lib\libfat.a(file_allocation_table.o)
                              c:/nds/devkitPro/libnds/lib\libfat.a(directory.o) (_FAT_fat_nextCluster)
c:/nds/devkitPro/libnds/lib\libfat.a(filetime.o)
                              c:/nds/devkitPro/libnds/lib\libfat.a(fatdir.o) (_FAT_filetime_getTimeFromRTC)
c:/nds/devkitPro/libnds/lib\libfat.a(lock.o)
                              c:/nds/devkitPro/libnds/lib\libfat.a(partition.o) (_FAT_lock_init)
c:/nds/devkitPro/libnds/lib\libnds9.a(console.o)
                              c:/nds/Projects/Tutoriales/Tutorial1MenuInicial/nflib/lib\libnflib.a(nf_basic.o) (consoleDemoInit)
c:/nds/devkitPro/libnds/lib\libnds9.a(keys.o)
                              Input.o (scanKeys)
c:/nds/devkitPro/libnds/lib\libnds9.a(sprite.o)
                              c:/nds/Projects/Tutoriales/Tutorial1MenuInicial/nflib/lib\libnflib.a(nf_sprite256.o) (oamInit)
c:/nds/devkitPro/libnds/lib\libnds9.a(sprite_alloc.o)
                              c:/nds/devkitPro/libnds/lib\libnds9.a(sprite.o) (oamAllocReset)
c:/nds/devkitPro/libnds/lib\libnds9.a(trig.o)
                              c:/nds/Projects/Tutoriales/Tutorial1MenuInicial/nflib/lib\libnflib.a(nf_sprite3d.o) (sinLerp)
c:/nds/devkitPro/libnds/lib\libnds9.a(video.o)
                              c:/nds/Projects/Tutoriales/Tutorial1MenuInicial/nflib/lib\libnflib.a(nf_basic.o) (setBrightness)
c:/nds/devkitPro/libnds/lib\libnds9.a(videoGL.o)
                              c:/nds/Projects/Tutoriales/Tutorial1MenuInicial/nflib/lib\libnflib.a(nf_3d.o) (glGlobalData)
c:/nds/devkitPro/libnds/lib\libnds9.a(dldi.o)
                              c:/nds/devkitPro/libnds/lib\libfat.a(disc.o) (dldiGetInternal)
c:/nds/devkitPro/libnds/lib\libnds9.a(dsi_sd.o)
                              c:/nds/devkitPro/libnds/lib\libfat.a(disc.o) (__io_dsisd)
c:/nds/devkitPro/libnds/lib\libnds9.a(initSystem.o)
                              c:/nds/devkitpro/devkitarm/bin/../lib/gcc/arm-none-eabi/4.8.2/../../../../arm-none-eabi/lib/thumb/ds_arm9_crt0.o (initSystem)
c:/nds/devkitPro/libnds/lib\libnds9.a(card.o)
                              c:/nds/devkitPro/libnds/lib\libfilesystem.a(nitrofs.o) (cardParamCommand)
c:/nds/devkitPro/libnds/lib\libnds9.a(fifosystem.o)
                              c:/nds/devkitPro/libnds/lib\libnds9.a(dsi_sd.o) (fifoSendValue32)
c:/nds/devkitPro/libnds/lib\libnds9.a(interrupts.o)
                              c:/nds/devkitPro/libnds/lib\libnds9.a(fifosystem.o) (irqSet)
c:/nds/devkitPro/libnds/lib\libnds9.a(libnds_exit.arm.o)
                              c:/nds/devkitpro/devkitarm/bin/../lib/gcc/arm-none-eabi/4.8.2/../../../../arm-none-eabi/lib/thumb/ds_arm9_crt0.o (__libnds_exit)
c:/nds/devkitPro/libnds/lib\libnds9.a(dcache.o)
                              c:/nds/Projects/Tutoriales/Tutorial1MenuInicial/nflib/lib\libnflib.a(nf_basic.o) (DC_FlushRange)
c:/nds/devkitPro/libnds/lib\libnds9.a(dldi_stub.o)
                              c:/nds/devkitPro/libnds/lib\libnds9.a(dldi.o) (_io_dldi_stub)
c:/nds/devkitPro/libnds/lib\libnds9.a(mpu_setup.o)
                              c:/nds/devkitpro/devkitarm/bin/../lib/gcc/arm-none-eabi/4.8.2/../../../../arm-none-eabi/lib/thumb/ds_arm9_crt0.o (__libnds_mpu_setup)
c:/nds/devkitPro/libnds/lib\libnds9.a(biosCalls.o)
                              c:/nds/devkitPro/libnds/lib\libnds9.a(card.o) (swiDelay)
c:/nds/devkitPro/libnds/lib\libnds9.a(debugprint.o)
                              c:/nds/devkitPro/libnds/lib\libnds9.a(console.o) (nocashWrite)
c:/nds/devkitPro/libnds/lib\libnds9.a(interruptDispatcher.o)
                              c:/nds/devkitPro/libnds/lib\libnds9.a(interrupts.o) (IntrMain)
c:/nds/devkitPro/libnds/lib\libnds9.a(swiSoftReset.o)
                              c:/nds/devkitPro/libnds/lib\libnds9.a(fifosystem.o) (swiSoftReset)
c:/nds/devkitPro/libnds/lib\libnds9.a(default_font.bin.o)
                              c:/nds/devkitPro/libnds/lib\libnds9.a(console.o) (default_font_bin)
c:/nds/devkitPro/libnds/lib\libnds9.a(background.o)
                              c:/nds/devkitPro/libnds/lib\libnds9.a(console.o) (bgState)
c:/nds/devkitPro/libnds/lib\libnds9.a(dynamicArray.o)
                              c:/nds/devkitPro/libnds/lib\libnds9.a(videoGL.o) (DynamicArrayInit)
c:/nds/devkitPro/libnds/lib\libnds9.a(system.o)
                              c:/nds/devkitPro/libnds/lib\libnds9.a(initSystem.o) (systemMsgHandler)
c:/nds/devkitpro/devkitarm/bin/../lib/gcc/arm-none-eabi/4.8.2/../../../../arm-none-eabi/lib/thumb\libstdc++.a(new_op.o)
                              main.o (operator new(unsigned int))
c:/nds/devkitpro/devkitarm/bin/../lib/gcc/arm-none-eabi/4.8.2/../../../../arm-none-eabi/lib/thumb\libstdc++.a(eh_call.o)
                              c:/nds/devkitpro/devkitarm/bin/../lib/gcc/arm-none-eabi/4.8.2/../../../../arm-none-eabi/lib/thumb\libstdc++.a(new_op.o) (__cxa_call_unexpected)
c:/nds/devkitpro/devkitarm/bin/../lib/gcc/arm-none-eabi/4.8.2/../../../../arm-none-eabi/lib/thumb\libstdc++.a(eh_personality.o)
                              c:/nds/devkitpro/devkitarm/bin/../lib/gcc/arm-none-eabi/4.8.2/../../../../arm-none-eabi/lib/thumb\libstdc++.a(new_op.o) (__gxx_personality_v0)
c:/nds/devkitpro/devkitarm/bin/../lib/gcc/arm-none-eabi/4.8.2/../../../../arm-none-eabi/lib/thumb\libstdc++.a(eh_terminate.o)
                              c:/nds/devkitpro/devkitarm/bin/../lib/gcc/arm-none-eabi/4.8.2/../../../../arm-none-eabi/lib/thumb\libstdc++.a(eh_call.o) (__cxxabiv1::__terminate(void (*)()))
c:/nds/devkitpro/devkitarm/bin/../lib/gcc/arm-none-eabi/4.8.2/../../../../arm-none-eabi/lib/thumb\libstdc++.a(eh_exception.o)
                              c:/nds/devkitpro/devkitarm/bin/../lib/gcc/arm-none-eabi/4.8.2/../../../../arm-none-eabi/lib/thumb\libstdc++.a(eh_call.o) (std::bad_exception::~bad_exception())
c:/nds/devkitpro/devkitarm/bin/../lib/gcc/arm-none-eabi/4.8.2/../../../../arm-none-eabi/lib/thumb\libstdc++.a(eh_alloc.o)
                              c:/nds/devkitpro/devkitarm/bin/../lib/gcc/arm-none-eabi/4.8.2/../../../../arm-none-eabi/lib/thumb\libstdc++.a(new_op.o) (__cxa_allocate_exception)
c:/nds/devkitpro/devkitarm/bin/../lib/gcc/arm-none-eabi/4.8.2/../../../../arm-none-eabi/lib/thumb\libstdc++.a(bad_alloc.o)
                              c:/nds/devkitpro/devkitarm/bin/../lib/gcc/arm-none-eabi/4.8.2/../../../../arm-none-eabi/lib/thumb\libstdc++.a(new_op.o) (std::bad_alloc::~bad_alloc())
c:/nds/devkitpro/devkitarm/bin/../lib/gcc/arm-none-eabi/4.8.2/../../../../arm-none-eabi/lib/thumb\libstdc++.a(class_type_info.o)
                              c:/nds/devkitpro/devkitarm/bin/../lib/gcc/arm-none-eabi/4.8.2/../../../../arm-none-eabi/lib/thumb\libstdc++.a(eh_exception.o) (vtable for __cxxabiv1::__class_type_info)
c:/nds/devkitpro/devkitarm/bin/../lib/gcc/arm-none-eabi/4.8.2/../../../../arm-none-eabi/lib/thumb\libstdc++.a(new_handler.o)
                              c:/nds/devkitpro/devkitarm/bin/../lib/gcc/arm-none-eabi/4.8.2/../../../../arm-none-eabi/lib/thumb\libstdc++.a(new_op.o) (__new_handler)
c:/nds/devkitpro/devkitarm/bin/../lib/gcc/arm-none-eabi/4.8.2/../../../../arm-none-eabi/lib/thumb\libstdc++.a(eh_arm.o)
                              c:/nds/devkitpro/devkitarm/bin/../lib/gcc/arm-none-eabi/4.8.2/../../../../arm-none-eabi/lib/thumb\libstdc++.a(new_op.o) (__cxa_end_cleanup)
c:/nds/devkitpro/devkitarm/bin/../lib/gcc/arm-none-eabi/4.8.2/../../../../arm-none-eabi/lib/thumb\libstdc++.a(eh_throw.o)
                              c:/nds/devkitpro/devkitarm/bin/../lib/gcc/arm-none-eabi/4.8.2/../../../../arm-none-eabi/lib/thumb\libstdc++.a(new_op.o) (__cxa_throw)
c:/nds/devkitpro/devkitarm/bin/../lib/gcc/arm-none-eabi/4.8.2/../../../../arm-none-eabi/lib/thumb\libstdc++.a(pure.o)
                              c:/nds/devkitpro/devkitarm/bin/../lib/gcc/arm-none-eabi/4.8.2/../../../../arm-none-eabi/lib/thumb\libstdc++.a(eh_exception.o) (__cxa_pure_virtual)
c:/nds/devkitpro/devkitarm/bin/../lib/gcc/arm-none-eabi/4.8.2/../../../../arm-none-eabi/lib/thumb\libstdc++.a(eh_globals.o)
                              c:/nds/devkitpro/devkitarm/bin/../lib/gcc/arm-none-eabi/4.8.2/../../../../arm-none-eabi/lib/thumb\libstdc++.a(eh_call.o) (__cxa_get_globals_fast)
c:/nds/devkitpro/devkitarm/bin/../lib/gcc/arm-none-eabi/4.8.2/../../../../arm-none-eabi/lib/thumb\libstdc++.a(eh_catch.o)
                              c:/nds/devkitpro/devkitarm/bin/../lib/gcc/arm-none-eabi/4.8.2/../../../../arm-none-eabi/lib/thumb\libstdc++.a(eh_call.o) (__cxa_begin_catch)
c:/nds/devkitpro/devkitarm/bin/../lib/gcc/arm-none-eabi/4.8.2/../../../../arm-none-eabi/lib/thumb\libstdc++.a(si_class_type_info.o)
                              c:/nds/devkitpro/devkitarm/bin/../lib/gcc/arm-none-eabi/4.8.2/../../../../arm-none-eabi/lib/thumb\libstdc++.a(eh_exception.o) (vtable for __cxxabiv1::__si_class_type_info)
c:/nds/devkitpro/devkitarm/bin/../lib/gcc/arm-none-eabi/4.8.2/../../../../arm-none-eabi/lib/thumb\libstdc++.a(eh_unex_handler.o)
                              c:/nds/devkitpro/devkitarm/bin/../lib/gcc/arm-none-eabi/4.8.2/../../../../arm-none-eabi/lib/thumb\libstdc++.a(eh_terminate.o) (__cxxabiv1::__unexpected_handler)
c:/nds/devkitpro/devkitarm/bin/../lib/gcc/arm-none-eabi/4.8.2/../../../../arm-none-eabi/lib/thumb\libstdc++.a(tinfo.o)
                              c:/nds/devkitpro/devkitarm/bin/../lib/gcc/arm-none-eabi/4.8.2/../../../../arm-none-eabi/lib/thumb\libstdc++.a(class_type_info.o) (std::type_info::~type_info())
c:/nds/devkitpro/devkitarm/bin/../lib/gcc/arm-none-eabi/4.8.2/../../../../arm-none-eabi/lib/thumb\libstdc++.a(eh_term_handler.o)
                              c:/nds/devkitpro/devkitarm/bin/../lib/gcc/arm-none-eabi/4.8.2/../../../../arm-none-eabi/lib/thumb\libstdc++.a(eh_terminate.o) (__cxxabiv1::__terminate_handler)
c:/nds/devkitpro/devkitarm/bin/../lib/gcc/arm-none-eabi/4.8.2/../../../../arm-none-eabi/lib/thumb\libstdc++.a(del_op.o)
                              c:/nds/devkitpro/devkitarm/bin/../lib/gcc/arm-none-eabi/4.8.2/../../../../arm-none-eabi/lib/thumb\libstdc++.a(eh_exception.o) (operator delete(void*))
c:/nds/devkitpro/devkitarm/bin/../lib/gcc/arm-none-eabi/4.8.2/../../../../arm-none-eabi/lib/thumb\libstdc++.a(vterminate.o)
                              c:/nds/devkitpro/devkitarm/bin/../lib/gcc/arm-none-eabi/4.8.2/../../../../arm-none-eabi/lib/thumb\libstdc++.a(eh_term_handler.o) (__gnu_cxx::__verbose_terminate_handler())
c:/nds/devkitpro/devkitarm/bin/../lib/gcc/arm-none-eabi/4.8.2/../../../../arm-none-eabi/lib/thumb\libstdc++.a(eh_type.o)
                              c:/nds/devkitpro/devkitarm/bin/../lib/gcc/arm-none-eabi/4.8.2/../../../../arm-none-eabi/lib/thumb\libstdc++.a(vterminate.o) (__cxa_current_exception_type)
c:/nds/devkitpro/devkitarm/bin/../lib/gcc/arm-none-eabi/4.8.2/../../../../arm-none-eabi/lib/thumb\libstdc++.a(cp-demangle.o)
                              c:/nds/devkitpro/devkitarm/bin/../lib/gcc/arm-none-eabi/4.8.2/../../../../arm-none-eabi/lib/thumb\libstdc++.a(vterminate.o) (__cxa_demangle)
c:/nds/devkitpro/devkitarm/bin/../lib/gcc/arm-none-eabi/4.8.2/thumb\libgcc.a(_udivsi3.o)
                              c:/nds/Projects/Tutoriales/Tutorial1MenuInicial/nflib/lib\libnflib.a(nf_sprite256.o) (__aeabi_uidiv)
c:/nds/devkitpro/devkitarm/bin/../lib/gcc/arm-none-eabi/4.8.2/thumb\libgcc.a(_divsi3.o)
                              c:/nds/devkitPro/libnds/lib\libfat.a(directory.o) (__aeabi_idiv)
c:/nds/devkitpro/devkitarm/bin/../lib/gcc/arm-none-eabi/4.8.2/thumb\libgcc.a(_dvmd_tls.o)
                              c:/nds/devkitpro/devkitarm/bin/../lib/gcc/arm-none-eabi/4.8.2/thumb\libgcc.a(_udivsi3.o) (__aeabi_idiv0)
c:/nds/devkitpro/devkitarm/bin/../lib/gcc/arm-none-eabi/4.8.2/thumb\libgcc.a(_muldi3.o)
                              c:/nds/devkitPro/libnds/lib\libfat.a(partition.o) (__aeabi_lmul)
c:/nds/devkitpro/devkitarm/bin/../lib/gcc/arm-none-eabi/4.8.2/thumb\libgcc.a(unwind-arm.o)
                              c:/nds/devkitpro/devkitarm/bin/../lib/gcc/arm-none-eabi/4.8.2/../../../../arm-none-eabi/lib/thumb\libstdc++.a(eh_personality.o) (__aeabi_unwind_cpp_pr0)
c:/nds/devkitpro/devkitarm/bin/../lib/gcc/arm-none-eabi/4.8.2/thumb\libgcc.a(libunwind.o)
                              c:/nds/devkitpro/devkitarm/bin/../lib/gcc/arm-none-eabi/4.8.2/thumb\libgcc.a(unwind-arm.o) (restore_core_regs)
c:/nds/devkitpro/devkitarm/bin/../lib/gcc/arm-none-eabi/4.8.2/thumb\libgcc.a(pr-support.o)
                              c:/nds/devkitpro/devkitarm/bin/../lib/gcc/arm-none-eabi/4.8.2/thumb\libgcc.a(unwind-arm.o) (__gnu_unwind_execute)
c:/nds/devkitpro/devkitarm/bin/../lib/gcc/arm-none-eabi/4.8.2/../../../../arm-none-eabi/lib/thumb\libg.a(lib_a-abort.o)
                              c:/nds/devkitpro/devkitarm/bin/../lib/gcc/arm-none-eabi/4.8.2/../../../../arm-none-eabi/lib/thumb\libstdc++.a(eh_personality.o) (abort)
c:/nds/devkitpro/devkitarm/bin/../lib/gcc/arm-none-eabi/4.8.2/../../../../arm-none-eabi/lib/thumb\libg.a(lib_a-bsearch.o)
                              c:/nds/devkitPro/libnds/lib\libnds9.a(trig.o) (bsearch)
c:/nds/devkitpro/devkitarm/bin/../lib/gcc/arm-none-eabi/4.8.2/../../../../arm-none-eabi/lib/thumb\libg.a(lib_a-calloc.o)
                              c:/nds/Projects/Tutoriales/Tutorial1MenuInicial/nflib/lib\libnflib.a(nf_sprite256.o) (calloc)
c:/nds/devkitpro/devkitarm/bin/../lib/gcc/arm-none-eabi/4.8.2/../../../../arm-none-eabi/lib/thumb\libg.a(lib_a-callocr.o)
                              c:/nds/devkitpro/devkitarm/bin/../lib/gcc/arm-none-eabi/4.8.2/../../../../arm-none-eabi/lib/thumb\libg.a(lib_a-calloc.o) (_calloc_r)
c:/nds/devkitpro/devkitarm/bin/../lib/gcc/arm-none-eabi/4.8.2/../../../../arm-none-eabi/lib/thumb\libg.a(lib_a-ctype_.o)
                              c:/nds/devkitPro/libnds/lib\libfat.a(directory.o) (__ctype_ptr__)
c:/nds/devkitpro/devkitarm/bin/../lib/gcc/arm-none-eabi/4.8.2/../../../../arm-none-eabi/lib/thumb\libg.a(lib_a-fclose.o)
                              c:/nds/Projects/Tutoriales/Tutorial1MenuInicial/nflib/lib\libnflib.a(nf_sprite256.o) (fclose)
c:/nds/devkitpro/devkitarm/bin/../lib/gcc/arm-none-eabi/4.8.2/../../../../arm-none-eabi/lib/thumb\libg.a(lib_a-fflush.o)
                              c:/nds/devkitpro/devkitarm/bin/../lib/gcc/arm-none-eabi/4.8.2/../../../../arm-none-eabi/lib/thumb\libg.a(lib_a-fclose.o) (_fflush_r)
c:/nds/devkitpro/devkitarm/bin/../lib/gcc/arm-none-eabi/4.8.2/../../../../arm-none-eabi/lib/thumb\libg.a(lib_a-findfp.o)
                              c:/nds/devkitpro/devkitarm/bin/../lib/gcc/arm-none-eabi/4.8.2/../../../../arm-none-eabi/lib/thumb\libg.a(lib_a-fclose.o) (__sinit)
c:/nds/devkitpro/devkitarm/bin/../lib/gcc/arm-none-eabi/4.8.2/../../../../arm-none-eabi/lib/thumb\libg.a(lib_a-fopen.o)
                              c:/nds/Projects/Tutoriales/Tutorial1MenuInicial/nflib/lib\libnflib.a(nf_sprite256.o) (fopen)
c:/nds/devkitpro/devkitarm/bin/../lib/gcc/arm-none-eabi/4.8.2/../../../../arm-none-eabi/lib/thumb\libg.a(lib_a-fputc.o)
                              c:/nds/devkitpro/devkitarm/bin/../lib/gcc/arm-none-eabi/4.8.2/../../../../arm-none-eabi/lib/thumb\libstdc++.a(vterminate.o) (fputc)
c:/nds/devkitpro/devkitarm/bin/../lib/gcc/arm-none-eabi/4.8.2/../../../../arm-none-eabi/lib/thumb\libg.a(lib_a-fputs.o)
                              c:/nds/devkitpro/devkitarm/bin/../lib/gcc/arm-none-eabi/4.8.2/../../../../arm-none-eabi/lib/thumb\libstdc++.a(vterminate.o) (fputs)
c:/nds/devkitpro/devkitarm/bin/../lib/gcc/arm-none-eabi/4.8.2/../../../../arm-none-eabi/lib/thumb\libg.a(lib_a-fread.o)
                              c:/nds/Projects/Tutoriales/Tutorial1MenuInicial/nflib/lib\libnflib.a(nf_sprite256.o) (fread)
c:/nds/devkitpro/devkitarm/bin/../lib/gcc/arm-none-eabi/4.8.2/../../../../arm-none-eabi/lib/thumb\libg.a(lib_a-freer.o)
                              c:/nds/devkitpro/devkitarm/bin/../lib/gcc/arm-none-eabi/4.8.2/../../../../arm-none-eabi/lib/thumb\libg.a(lib_a-fclose.o) (_free_r)
c:/nds/devkitpro/devkitarm/bin/../lib/gcc/arm-none-eabi/4.8.2/../../../../arm-none-eabi/lib/thumb\libg.a(lib_a-fseek.o)
                              c:/nds/devkitpro/devkitarm/bin/../lib/gcc/arm-none-eabi/4.8.2/../../../../arm-none-eabi/lib/thumb\libg.a(lib_a-fopen.o) (_fseek_r)
c:/nds/devkitpro/devkitarm/bin/../lib/gcc/arm-none-eabi/4.8.2/../../../../arm-none-eabi/lib/thumb\libg.a(lib_a-fseeko.o)
                              c:/nds/devkitpro/devkitarm/bin/../lib/gcc/arm-none-eabi/4.8.2/../../../../arm-none-eabi/lib/thumb\libg.a(lib_a-fseek.o) (_fseeko_r)
c:/nds/devkitpro/devkitarm/bin/../lib/gcc/arm-none-eabi/4.8.2/../../../../arm-none-eabi/lib/thumb\libg.a(lib_a-ftell.o)
                              c:/nds/Projects/Tutoriales/Tutorial1MenuInicial/nflib/lib\libnflib.a(nf_sprite256.o) (ftell)
c:/nds/devkitpro/devkitarm/bin/../lib/gcc/arm-none-eabi/4.8.2/../../../../arm-none-eabi/lib/thumb\libg.a(lib_a-ftello.o)
                              c:/nds/devkitpro/devkitarm/bin/../lib/gcc/arm-none-eabi/4.8.2/../../../../arm-none-eabi/lib/thumb\libg.a(lib_a-ftell.o) (_ftello_r)
c:/nds/devkitpro/devkitarm/bin/../lib/gcc/arm-none-eabi/4.8.2/../../../../arm-none-eabi/lib/thumb\libg.a(lib_a-fvwrite.o)
                              c:/nds/devkitpro/devkitarm/bin/../lib/gcc/arm-none-eabi/4.8.2/../../../../arm-none-eabi/lib/thumb\libg.a(lib_a-fputs.o) (__sfvwrite_r)
c:/nds/devkitpro/devkitarm/bin/../lib/gcc/arm-none-eabi/4.8.2/../../../../arm-none-eabi/lib/thumb\libg.a(lib_a-fwalk.o)
                              c:/nds/devkitpro/devkitarm/bin/../lib/gcc/arm-none-eabi/4.8.2/../../../../arm-none-eabi/lib/thumb\libg.a(lib_a-findfp.o) (_fwalk)
c:/nds/devkitpro/devkitarm/bin/../lib/gcc/arm-none-eabi/4.8.2/../../../../arm-none-eabi/lib/thumb\libg.a(lib_a-fwrite.o)
                              c:/nds/devkitpro/devkitarm/bin/../lib/gcc/arm-none-eabi/4.8.2/../../../../arm-none-eabi/lib/thumb\libstdc++.a(vterminate.o) (fwrite)
c:/nds/devkitpro/devkitarm/bin/../lib/gcc/arm-none-eabi/4.8.2/../../../../arm-none-eabi/lib/thumb\libg.a(lib_a-impure.o)
                              c:/nds/devkitpro/devkitarm/bin/../lib/gcc/arm-none-eabi/4.8.2/../../../../arm-none-eabi/lib/thumb\libg.a(lib_a-fflush.o) (_global_impure_ptr)
c:/nds/devkitpro/devkitarm/bin/../lib/gcc/arm-none-eabi/4.8.2/../../../../arm-none-eabi/lib/thumb\libg.a(lib_a-init.o)
                              c:/nds/devkitpro/devkitarm/bin/../lib/gcc/arm-none-eabi/4.8.2/../../../../arm-none-eabi/lib/thumb/ds_arm9_crt0.o (__libc_init_array)
c:/nds/devkitpro/devkitarm/bin/../lib/gcc/arm-none-eabi/4.8.2/../../../../arm-none-eabi/lib/thumb\libg.a(lib_a-iprintf.o)
                              main.o (iprintf)
c:/nds/devkitpro/devkitarm/bin/../lib/gcc/arm-none-eabi/4.8.2/../../../../arm-none-eabi/lib/thumb\libg.a(lib_a-lcltime_r.o)
                              c:/nds/devkitPro/libnds/lib\libfat.a(filetime.o) (localtime_r)
c:/nds/devkitpro/devkitarm/bin/../lib/gcc/arm-none-eabi/4.8.2/../../../../arm-none-eabi/lib/thumb\libg.a(lib_a-locale.o)
                              c:/nds/devkitPro/libnds/lib\libfat.a(directory.o) (__locale_mb_cur_max)
c:/nds/devkitpro/devkitarm/bin/../lib/gcc/arm-none-eabi/4.8.2/../../../../arm-none-eabi/lib/thumb\libg.a(lib_a-makebuf.o)
                              c:/nds/devkitpro/devkitarm/bin/../lib/gcc/arm-none-eabi/4.8.2/../../../../arm-none-eabi/lib/thumb\libg.a(lib_a-fseeko.o) (__smakebuf_r)
c:/nds/devkitpro/devkitarm/bin/../lib/gcc/arm-none-eabi/4.8.2/../../../../arm-none-eabi/lib/thumb\libg.a(lib_a-malloc.o)
                              c:/nds/devkitPro/libnds/lib\libfilesystem.a(nitrofs.o) (malloc)
c:/nds/devkitpro/devkitarm/bin/../lib/gcc/arm-none-eabi/4.8.2/../../../../arm-none-eabi/lib/thumb\libg.a(lib_a-mallocr.o)
                              c:/nds/devkitpro/devkitarm/bin/../lib/gcc/arm-none-eabi/4.8.2/../../../../arm-none-eabi/lib/thumb\libg.a(lib_a-callocr.o) (_malloc_r)
c:/nds/devkitpro/devkitarm/bin/../lib/gcc/arm-none-eabi/4.8.2/../../../../arm-none-eabi/lib/thumb\libg.a(lib_a-mbrtowc.o)
                              c:/nds/devkitPro/libnds/lib\libfat.a(directory.o) (mbrtowc)
c:/nds/devkitpro/devkitarm/bin/../lib/gcc/arm-none-eabi/4.8.2/../../../../arm-none-eabi/lib/thumb\libg.a(lib_a-mbsrtowcs.o)
                              c:/nds/devkitPro/libnds/lib\libfat.a(directory.o) (mbsrtowcs)
c:/nds/devkitpro/devkitarm/bin/../lib/gcc/arm-none-eabi/4.8.2/../../../../arm-none-eabi/lib/thumb\libg.a(lib_a-mbtowc_r.o)
                              c:/nds/devkitpro/devkitarm/bin/../lib/gcc/arm-none-eabi/4.8.2/../../../../arm-none-eabi/lib/thumb\libg.a(lib_a-locale.o) (__utf8_mbtowc)
c:/nds/devkitpro/devkitarm/bin/../lib/gcc/arm-none-eabi/4.8.2/../../../../arm-none-eabi/lib/thumb\libg.a(lib_a-memchr-stub.o)
                              c:/nds/devkitpro/devkitarm/bin/../lib/gcc/arm-none-eabi/4.8.2/../../../../arm-none-eabi/lib/thumb\libg.a(lib_a-fvwrite.o) (memchr)
c:/nds/devkitpro/devkitarm/bin/../lib/gcc/arm-none-eabi/4.8.2/../../../../arm-none-eabi/lib/thumb\libg.a(lib_a-memcmp.o)
                              c:/nds/devkitPro/libnds/lib\libfilesystem.a(nitrofs.o) (memcmp)
c:/nds/devkitpro/devkitarm/bin/../lib/gcc/arm-none-eabi/4.8.2/../../../../arm-none-eabi/lib/thumb\libg.a(lib_a-memcpy-stub.o)
                              Text.o (memcpy)
c:/nds/devkitpro/devkitarm/bin/../lib/gcc/arm-none-eabi/4.8.2/../../../../arm-none-eabi/lib/thumb\libg.a(lib_a-memmove.o)
                              c:/nds/devkitPro/libnds/lib\libfat.a(directory.o) (memmove)
c:/nds/devkitpro/devkitarm/bin/../lib/gcc/arm-none-eabi/4.8.2/../../../../arm-none-eabi/lib/thumb\libg.a(lib_a-memset.o)
                              c:/nds/Projects/Tutoriales/Tutorial1MenuInicial/nflib/lib\libnflib.a(nf_sprite256.o) (memset)
c:/nds/devkitpro/devkitarm/bin/../lib/gcc/arm-none-eabi/4.8.2/../../../../arm-none-eabi/lib/thumb\libg.a(lib_a-mktime.o)
                              c:/nds/devkitPro/libnds/lib\libfat.a(filetime.o) (mktime)
c:/nds/devkitpro/devkitarm/bin/../lib/gcc/arm-none-eabi/4.8.2/../../../../arm-none-eabi/lib/thumb\libg.a(lib_a-mktm_r.o)
                              c:/nds/devkitpro/devkitarm/bin/../lib/gcc/arm-none-eabi/4.8.2/../../../../arm-none-eabi/lib/thumb\libg.a(lib_a-mktime.o) (__tzcalc_limits)
c:/nds/devkitpro/devkitarm/bin/../lib/gcc/arm-none-eabi/4.8.2/../../../../arm-none-eabi/lib/thumb\libg.a(lib_a-mlock.o)
                              c:/nds/devkitpro/devkitarm/bin/../lib/gcc/arm-none-eabi/4.8.2/../../../../arm-none-eabi/lib/thumb\libg.a(lib_a-freer.o) (__malloc_lock)
c:/nds/devkitpro/devkitarm/bin/../lib/gcc/arm-none-eabi/4.8.2/../../../../arm-none-eabi/lib/thumb\libg.a(lib_a-putc.o)
                              c:/nds/devkitpro/devkitarm/bin/../lib/gcc/arm-none-eabi/4.8.2/../../../../arm-none-eabi/lib/thumb\libg.a(lib_a-fputc.o) (_putc_r)
c:/nds/devkitpro/devkitarm/bin/../lib/gcc/arm-none-eabi/4.8.2/../../../../arm-none-eabi/lib/thumb\libg.a(lib_a-realloc.o)
                              c:/nds/devkitPro/libnds/lib\libnds9.a(sprite_alloc.o) (realloc)
c:/nds/devkitpro/devkitarm/bin/../lib/gcc/arm-none-eabi/4.8.2/../../../../arm-none-eabi/lib/thumb\libg.a(lib_a-reallocr.o)
                              c:/nds/devkitpro/devkitarm/bin/../lib/gcc/arm-none-eabi/4.8.2/../../../../arm-none-eabi/lib/thumb\libg.a(lib_a-fvwrite.o) (_realloc_r)
c:/nds/devkitpro/devkitarm/bin/../lib/gcc/arm-none-eabi/4.8.2/../../../../arm-none-eabi/lib/thumb\libg.a(lib_a-refill.o)
                              c:/nds/devkitpro/devkitarm/bin/../lib/gcc/arm-none-eabi/4.8.2/../../../../arm-none-eabi/lib/thumb\libg.a(lib_a-fread.o) (__srefill_r)
c:/nds/devkitpro/devkitarm/bin/../lib/gcc/arm-none-eabi/4.8.2/../../../../arm-none-eabi/lib/thumb\libg.a(lib_a-rewind.o)
                              c:/nds/Projects/Tutoriales/Tutorial1MenuInicial/nflib/lib\libnflib.a(nf_sprite256.o) (rewind)
c:/nds/devkitpro/devkitarm/bin/../lib/gcc/arm-none-eabi/4.8.2/../../../../arm-none-eabi/lib/thumb\libg.a(lib_a-setvbuf.o)
                              c:/nds/devkitPro/libnds/lib\libnds9.a(console.o) (setvbuf)
c:/nds/devkitpro/devkitarm/bin/../lib/gcc/arm-none-eabi/4.8.2/../../../../arm-none-eabi/lib/thumb\libg.a(lib_a-signal.o)
                              c:/nds/devkitpro/devkitarm/bin/../lib/gcc/arm-none-eabi/4.8.2/../../../../arm-none-eabi/lib/thumb\libg.a(lib_a-abort.o) (raise)
c:/nds/devkitpro/devkitarm/bin/../lib/gcc/arm-none-eabi/4.8.2/../../../../arm-none-eabi/lib/thumb\libg.a(lib_a-siscanf.o)
                              c:/nds/devkitPro/libnds/lib\libnds9.a(console.o) (siscanf)
c:/nds/devkitpro/devkitarm/bin/../lib/gcc/arm-none-eabi/4.8.2/../../../../arm-none-eabi/lib/thumb\libg.a(lib_a-sprintf.o)
                              c:/nds/Projects/Tutoriales/Tutorial1MenuInicial/nflib/lib\libnflib.a(nf_2d.o) (sprintf)
c:/nds/devkitpro/devkitarm/bin/../lib/gcc/arm-none-eabi/4.8.2/../../../../arm-none-eabi/lib/thumb\libg.a(lib_a-stdio.o)
                              c:/nds/devkitpro/devkitarm/bin/../lib/gcc/arm-none-eabi/4.8.2/../../../../arm-none-eabi/lib/thumb\libg.a(lib_a-findfp.o) (__sread)
c:/nds/devkitpro/devkitarm/bin/../lib/gcc/arm-none-eabi/4.8.2/../../../../arm-none-eabi/lib/thumb\libg.a(lib_a-stpcpy.o)
                              c:/nds/devkitPro/libnds/lib\libfat.a(libfat.o) (stpcpy)
c:/nds/devkitpro/devkitarm/bin/../lib/gcc/arm-none-eabi/4.8.2/../../../../arm-none-eabi/lib/thumb\libg.a(lib_a-strcasecmp.o)
                              c:/nds/devkitpro/devkitarm/bin/../lib/gcc/arm-none-eabi/4.8.2/../../../../arm-none-eabi/lib/thumb\libg.a(lib_a-locale.o) (strcasecmp)
c:/nds/devkitpro/devkitarm/bin/../lib/gcc/arm-none-eabi/4.8.2/../../../../arm-none-eabi/lib/thumb\libg.a(lib_a-strcat.o)
                              c:/nds/devkitpro/devkitarm/bin/../lib/gcc/arm-none-eabi/4.8.2/../../../../arm-none-eabi/lib/thumb\libg.a(lib_a-locale.o) (strcat)
c:/nds/devkitpro/devkitarm/bin/../lib/gcc/arm-none-eabi/4.8.2/../../../../arm-none-eabi/lib/thumb\libg.a(lib_a-strchr.o)
                              c:/nds/devkitPro/libnds/lib\libfilesystem.a(nitrofs.o) (strchr)
c:/nds/devkitpro/devkitarm/bin/../lib/gcc/arm-none-eabi/4.8.2/../../../../arm-none-eabi/lib/thumb\libg.a(lib_a-strcmp.o)
                              c:/nds/Projects/Tutoriales/Tutorial1MenuInicial/nflib/lib\libnflib.a(nf_basic.o) (strcmp)
c:/nds/devkitpro/devkitarm/bin/../lib/gcc/arm-none-eabi/4.8.2/../../../../arm-none-eabi/lib/thumb\libg.a(lib_a-strcpy.o)
                              c:/nds/Projects/Tutoriales/Tutorial1MenuInicial/nflib/lib\libnflib.a(nf_basic.o) (strcpy)
c:/nds/devkitpro/devkitarm/bin/../lib/gcc/arm-none-eabi/4.8.2/../../../../arm-none-eabi/lib/thumb\libg.a(lib_a-strdup.o)
                              c:/nds/devkitPro/libnds/lib\libfilesystem.a(nitrofs.o) (strdup)
c:/nds/devkitpro/devkitarm/bin/../lib/gcc/arm-none-eabi/4.8.2/../../../../arm-none-eabi/lib/thumb\libg.a(lib_a-strdup_r.o)
                              c:/nds/devkitpro/devkitarm/bin/../lib/gcc/arm-none-eabi/4.8.2/../../../../arm-none-eabi/lib/thumb\libg.a(lib_a-strdup.o) (_strdup_r)
c:/nds/devkitpro/devkitarm/bin/../lib/gcc/arm-none-eabi/4.8.2/../../../../arm-none-eabi/lib/thumb\libg.a(lib_a-strlcpy.o)
                              c:/nds/devkitpro/devkitarm/bin/../lib/gcc/arm-none-eabi/4.8.2/../../../../arm-none-eabi/lib/thumb\libg.a(lib_a-locale.o) (strlcpy)
c:/nds/devkitpro/devkitarm/bin/../lib/gcc/arm-none-eabi/4.8.2/../../../../arm-none-eabi/lib/thumb\libg.a(lib_a-strlen.o)
                              c:/nds/Projects/Tutoriales/Tutorial1MenuInicial/nflib/lib\libnflib.a(nf_text.o) (strlen)
c:/nds/devkitpro/devkitarm/bin/../lib/gcc/arm-none-eabi/4.8.2/../../../../arm-none-eabi/lib/thumb\libg.a(lib_a-strncasecmp.o)
                              c:/nds/devkitPro/libnds/lib\libfat.a(libfat.o) (strncasecmp)
c:/nds/devkitpro/devkitarm/bin/../lib/gcc/arm-none-eabi/4.8.2/../../../../arm-none-eabi/lib/thumb\libg.a(lib_a-strncmp.o)
                              c:/nds/devkitPro/libnds/lib\libfilesystem.a(nitrofs.o) (strncmp)
c:/nds/devkitpro/devkitarm/bin/../lib/gcc/arm-none-eabi/4.8.2/../../../../arm-none-eabi/lib/thumb\libg.a(lib_a-strncpy.o)
                              c:/nds/devkitPro/libnds/lib\libfilesystem.a(nitrofs.o) (strncpy)
c:/nds/devkitpro/devkitarm/bin/../lib/gcc/arm-none-eabi/4.8.2/../../../../arm-none-eabi/lib/thumb\libg.a(lib_a-strnlen.o)
                              c:/nds/devkitPro/libnds/lib\libfat.a(directory.o) (strnlen)
c:/nds/devkitpro/devkitarm/bin/../lib/gcc/arm-none-eabi/4.8.2/../../../../arm-none-eabi/lib/thumb\libg.a(lib_a-strpbrk.o)
                              c:/nds/devkitPro/libnds/lib\libfat.a(directory.o) (strpbrk)
c:/nds/devkitpro/devkitarm/bin/../lib/gcc/arm-none-eabi/4.8.2/../../../../arm-none-eabi/lib/thumb\libg.a(lib_a-strrchr.o)
                              c:/nds/devkitPro/libnds/lib\libfat.a(libfat.o) (strrchr)
c:/nds/devkitpro/devkitarm/bin/../lib/gcc/arm-none-eabi/4.8.2/../../../../arm-none-eabi/lib/thumb\libg.a(lib_a-strtol.o)
                              c:/nds/devkitpro/devkitarm/bin/../lib/gcc/arm-none-eabi/4.8.2/../../../../arm-none-eabi/lib/thumb\libg.a(lib_a-locale.o) (_strtol_r)
c:/nds/devkitpro/devkitarm/bin/../lib/gcc/arm-none-eabi/4.8.2/../../../../arm-none-eabi/lib/thumb\libg.a(lib_a-svfiscanf.o)
                              c:/nds/devkitpro/devkitarm/bin/../lib/gcc/arm-none-eabi/4.8.2/../../../../arm-none-eabi/lib/thumb\libg.a(lib_a-siscanf.o) (__ssvfiscanf_r)
c:/nds/devkitpro/devkitarm/bin/../lib/gcc/arm-none-eabi/4.8.2/../../../../arm-none-eabi/lib/thumb\libg.a(lib_a-svfprintf.o)
                              c:/nds/devkitpro/devkitarm/bin/../lib/gcc/arm-none-eabi/4.8.2/../../../../arm-none-eabi/lib/thumb\libg.a(lib_a-sprintf.o) (_svfprintf_r)
c:/nds/devkitpro/devkitarm/bin/../lib/gcc/arm-none-eabi/4.8.2/../../../../arm-none-eabi/lib/thumb\libg.a(lib_a-sysclose.o)
                              c:/nds/devkitPro/libnds/lib\libnds9.a(dldi.o) (close)
c:/nds/devkitpro/devkitarm/bin/../lib/gcc/arm-none-eabi/4.8.2/../../../../arm-none-eabi/lib/thumb\libg.a(lib_a-syslseek.o)
                              c:/nds/devkitPro/libnds/lib\libfilesystem.a(nitrofs.o) (lseek)
c:/nds/devkitpro/devkitarm/bin/../lib/gcc/arm-none-eabi/4.8.2/../../../../arm-none-eabi/lib/thumb\libg.a(lib_a-sysopen.o)
                              c:/nds/devkitPro/libnds/lib\libfilesystem.a(nitrofs.o) (open)
c:/nds/devkitpro/devkitarm/bin/../lib/gcc/arm-none-eabi/4.8.2/../../../../arm-none-eabi/lib/thumb\libg.a(lib_a-sysread.o)
                              c:/nds/devkitPro/libnds/lib\libfilesystem.a(nitrofs.o) (read)
c:/nds/devkitpro/devkitarm/bin/../lib/gcc/arm-none-eabi/4.8.2/../../../../arm-none-eabi/lib/thumb\libg.a(lib_a-syswrite.o)
                              c:/nds/devkitpro/devkitarm/bin/../lib/gcc/arm-none-eabi/4.8.2/../../../../arm-none-eabi/lib/thumb\libstdc++.a(pure.o) (write)
c:/nds/devkitpro/devkitarm/bin/../lib/gcc/arm-none-eabi/4.8.2/../../../../arm-none-eabi/lib/thumb\libg.a(lib_a-time.o)
                              c:/nds/devkitPro/libnds/lib\libfat.a(filetime.o) (time)
c:/nds/devkitpro/devkitarm/bin/../lib/gcc/arm-none-eabi/4.8.2/../../../../arm-none-eabi/lib/thumb\libg.a(lib_a-towlower.o)
                              c:/nds/devkitPro/libnds/lib\libfat.a(directory.o) (towlower)
c:/nds/devkitpro/devkitarm/bin/../lib/gcc/arm-none-eabi/4.8.2/../../../../arm-none-eabi/lib/thumb\libg.a(lib_a-towupper.o)
                              c:/nds/devkitPro/libnds/lib\libfat.a(directory.o) (towupper)
c:/nds/devkitpro/devkitarm/bin/../lib/gcc/arm-none-eabi/4.8.2/../../../../arm-none-eabi/lib/thumb\libg.a(lib_a-tzlock.o)
                              c:/nds/devkitpro/devkitarm/bin/../lib/gcc/arm-none-eabi/4.8.2/../../../../arm-none-eabi/lib/thumb\libg.a(lib_a-mktime.o) (__tz_lock)
c:/nds/devkitpro/devkitarm/bin/../lib/gcc/arm-none-eabi/4.8.2/../../../../arm-none-eabi/lib/thumb\libg.a(lib_a-tzvars.o)
                              c:/nds/devkitpro/devkitarm/bin/../lib/gcc/arm-none-eabi/4.8.2/../../../../arm-none-eabi/lib/thumb\libg.a(lib_a-mktime.o) (_daylight)
c:/nds/devkitpro/devkitarm/bin/../lib/gcc/arm-none-eabi/4.8.2/../../../../arm-none-eabi/lib/thumb\libg.a(lib_a-ungetc.o)
                              c:/nds/devkitpro/devkitarm/bin/../lib/gcc/arm-none-eabi/4.8.2/../../../../arm-none-eabi/lib/thumb\libg.a(lib_a-svfiscanf.o) (__submore)
c:/nds/devkitpro/devkitarm/bin/../lib/gcc/arm-none-eabi/4.8.2/../../../../arm-none-eabi/lib/thumb\libg.a(lib_a-vfiprintf.o)
                              c:/nds/devkitpro/devkitarm/bin/../lib/gcc/arm-none-eabi/4.8.2/../../../../arm-none-eabi/lib/thumb\libg.a(lib_a-iprintf.o) (_vfiprintf_r)
c:/nds/devkitpro/devkitarm/bin/../lib/gcc/arm-none-eabi/4.8.2/../../../../arm-none-eabi/lib/thumb\libg.a(lib_a-wbuf.o)
                              c:/nds/devkitpro/devkitarm/bin/../lib/gcc/arm-none-eabi/4.8.2/../../../../arm-none-eabi/lib/thumb\libg.a(lib_a-putc.o) (__swbuf_r)
c:/nds/devkitpro/devkitarm/bin/../lib/gcc/arm-none-eabi/4.8.2/../../../../arm-none-eabi/lib/thumb\libg.a(lib_a-wcrtomb.o)
                              c:/nds/devkitpro/devkitarm/bin/../lib/gcc/arm-none-eabi/4.8.2/../../../../arm-none-eabi/lib/thumb\libg.a(lib_a-svfprintf.o) (_wcrtomb_r)
c:/nds/devkitpro/devkitarm/bin/../lib/gcc/arm-none-eabi/4.8.2/../../../../arm-none-eabi/lib/thumb\libg.a(lib_a-wcsrtombs.o)
                              c:/nds/devkitpro/devkitarm/bin/../lib/gcc/arm-none-eabi/4.8.2/../../../../arm-none-eabi/lib/thumb\libg.a(lib_a-svfprintf.o) (_wcsrtombs_r)
c:/nds/devkitpro/devkitarm/bin/../lib/gcc/arm-none-eabi/4.8.2/../../../../arm-none-eabi/lib/thumb\libg.a(lib_a-wctob.o)
                              c:/nds/devkitPro/libnds/lib\libfat.a(directory.o) (wctob)
c:/nds/devkitpro/devkitarm/bin/../lib/gcc/arm-none-eabi/4.8.2/../../../../arm-none-eabi/lib/thumb\libg.a(lib_a-wctomb_r.o)
                              c:/nds/devkitpro/devkitarm/bin/../lib/gcc/arm-none-eabi/4.8.2/../../../../arm-none-eabi/lib/thumb\libg.a(lib_a-locale.o) (__utf8_wctomb)
c:/nds/devkitpro/devkitarm/bin/../lib/gcc/arm-none-eabi/4.8.2/../../../../arm-none-eabi/lib/thumb\libg.a(lib_a-wsetup.o)
                              c:/nds/devkitpro/devkitarm/bin/../lib/gcc/arm-none-eabi/4.8.2/../../../../arm-none-eabi/lib/thumb\libg.a(lib_a-fvwrite.o) (__swsetup_r)
c:/nds/devkitpro/devkitarm/bin/../lib/gcc/arm-none-eabi/4.8.2/../../../../arm-none-eabi/lib/thumb\libg.a(lib_a-div.o)
                              c:/nds/devkitpro/devkitarm/bin/../lib/gcc/arm-none-eabi/4.8.2/../../../../arm-none-eabi/lib/thumb\libg.a(lib_a-mktime.o) (div)
c:/nds/devkitpro/devkitarm/bin/../lib/gcc/arm-none-eabi/4.8.2/../../../../arm-none-eabi/lib/thumb\libg.a(lib_a-dtoa.o)
                              c:/nds/devkitpro/devkitarm/bin/../lib/gcc/arm-none-eabi/4.8.2/../../../../arm-none-eabi/lib/thumb\libg.a(lib_a-svfprintf.o) (_dtoa_r)
c:/nds/devkitpro/devkitarm/bin/../lib/gcc/arm-none-eabi/4.8.2/../../../../arm-none-eabi/lib/thumb\libg.a(lib_a-flags.o)
                              c:/nds/devkitpro/devkitarm/bin/../lib/gcc/arm-none-eabi/4.8.2/../../../../arm-none-eabi/lib/thumb\libg.a(lib_a-fopen.o) (__sflags)
c:/nds/devkitpro/devkitarm/bin/../lib/gcc/arm-none-eabi/4.8.2/../../../../arm-none-eabi/lib/thumb\libg.a(lib_a-fputwc.o)
                              c:/nds/devkitpro/devkitarm/bin/../lib/gcc/arm-none-eabi/4.8.2/../../../../arm-none-eabi/lib/thumb\libg.a(lib_a-vfiprintf.o) (_fputwc_r)
c:/nds/devkitpro/devkitarm/bin/../lib/gcc/arm-none-eabi/4.8.2/../../../../arm-none-eabi/lib/thumb\libg.a(lib_a-getenv_r.o)
                              c:/nds/devkitpro/devkitarm/bin/../lib/gcc/arm-none-eabi/4.8.2/../../../../arm-none-eabi/lib/thumb\libg.a(lib_a-locale.o) (_getenv_r)
c:/nds/devkitpro/devkitarm/bin/../lib/gcc/arm-none-eabi/4.8.2/../../../../arm-none-eabi/lib/thumb\libg.a(lib_a-gettzinfo.o)
                              c:/nds/devkitpro/devkitarm/bin/../lib/gcc/arm-none-eabi/4.8.2/../../../../arm-none-eabi/lib/thumb\libg.a(lib_a-mktime.o) (__gettzinfo)
c:/nds/devkitpro/devkitarm/bin/../lib/gcc/arm-none-eabi/4.8.2/../../../../arm-none-eabi/lib/thumb\libg.a(lib_a-iswspace.o)
                              c:/nds/devkitpro/devkitarm/bin/../lib/gcc/arm-none-eabi/4.8.2/../../../../arm-none-eabi/lib/thumb\libg.a(lib_a-svfiscanf.o) (iswspace)
c:/nds/devkitpro/devkitarm/bin/../lib/gcc/arm-none-eabi/4.8.2/../../../../arm-none-eabi/lib/thumb\libg.a(lib_a-jp2uc.o)
                              c:/nds/devkitpro/devkitarm/bin/../lib/gcc/arm-none-eabi/4.8.2/../../../../arm-none-eabi/lib/thumb\libg.a(lib_a-towlower.o) (_jp2uc)
c:/nds/devkitpro/devkitarm/bin/../lib/gcc/arm-none-eabi/4.8.2/../../../../arm-none-eabi/lib/thumb\libg.a(lib_a-mbsnrtowcs.o)
                              c:/nds/devkitpro/devkitarm/bin/../lib/gcc/arm-none-eabi/4.8.2/../../../../arm-none-eabi/lib/thumb\libg.a(lib_a-mbsrtowcs.o) (_mbsnrtowcs_r)
c:/nds/devkitpro/devkitarm/bin/../lib/gcc/arm-none-eabi/4.8.2/../../../../arm-none-eabi/lib/thumb\libg.a(lib_a-mprec.o)
                              c:/nds/devkitpro/devkitarm/bin/../lib/gcc/arm-none-eabi/4.8.2/../../../../arm-none-eabi/lib/thumb\libg.a(lib_a-dtoa.o) (_Balloc)
c:/nds/devkitpro/devkitarm/bin/../lib/gcc/arm-none-eabi/4.8.2/../../../../arm-none-eabi/lib/thumb\libg.a(lib_a-sccl.o)
                              c:/nds/devkitpro/devkitarm/bin/../lib/gcc/arm-none-eabi/4.8.2/../../../../arm-none-eabi/lib/thumb\libg.a(lib_a-svfiscanf.o) (__sccl)
c:/nds/devkitpro/devkitarm/bin/../lib/gcc/arm-none-eabi/4.8.2/../../../../arm-none-eabi/lib/thumb\libg.a(lib_a-s_fpclassify.o)
                              c:/nds/devkitpro/devkitarm/bin/../lib/gcc/arm-none-eabi/4.8.2/../../../../arm-none-eabi/lib/thumb\libg.a(lib_a-svfprintf.o) (__fpclassifyd)
c:/nds/devkitpro/devkitarm/bin/../lib/gcc/arm-none-eabi/4.8.2/../../../../arm-none-eabi/lib/thumb\libg.a(lib_a-strtoll_r.o)
                              c:/nds/devkitpro/devkitarm/bin/../lib/gcc/arm-none-eabi/4.8.2/../../../../arm-none-eabi/lib/thumb\libg.a(lib_a-svfiscanf.o) (_strtoll_r)
c:/nds/devkitpro/devkitarm/bin/../lib/gcc/arm-none-eabi/4.8.2/../../../../arm-none-eabi/lib/thumb\libg.a(lib_a-strtoull_r.o)
                              c:/nds/devkitpro/devkitarm/bin/../lib/gcc/arm-none-eabi/4.8.2/../../../../arm-none-eabi/lib/thumb\libg.a(lib_a-svfiscanf.o) (_strtoull_r)
c:/nds/devkitpro/devkitarm/bin/../lib/gcc/arm-none-eabi/4.8.2/../../../../arm-none-eabi/lib/thumb\libg.a(lib_a-strtoul.o)
                              c:/nds/devkitpro/devkitarm/bin/../lib/gcc/arm-none-eabi/4.8.2/../../../../arm-none-eabi/lib/thumb\libg.a(lib_a-svfiscanf.o) (_strtoul_r)
c:/nds/devkitpro/devkitarm/bin/../lib/gcc/arm-none-eabi/4.8.2/../../../../arm-none-eabi/lib/thumb\libg.a(lib_a-svfiprintf.o)
                              c:/nds/devkitpro/devkitarm/bin/../lib/gcc/arm-none-eabi/4.8.2/../../../../arm-none-eabi/lib/thumb\libg.a(lib_a-svfprintf.o) (__ssprint_r)
c:/nds/devkitpro/devkitarm/bin/../lib/gcc/arm-none-eabi/4.8.2/../../../../arm-none-eabi/lib/thumb\libg.a(lib_a-wcsnrtombs.o)
                              c:/nds/devkitpro/devkitarm/bin/../lib/gcc/arm-none-eabi/4.8.2/../../../../arm-none-eabi/lib/thumb\libg.a(lib_a-wcsrtombs.o) (_wcsnrtombs_r)
c:/nds/devkitpro/devkitarm/bin/../lib/gcc/arm-none-eabi/4.8.2/../../../../arm-none-eabi/lib/thumb\libg.a(lib_a-environ.o)
                              c:/nds/devkitpro/devkitarm/bin/../lib/gcc/arm-none-eabi/4.8.2/../../../../arm-none-eabi/lib/thumb\libg.a(lib_a-getenv_r.o) (environ)
c:/nds/devkitpro/devkitarm/bin/../lib/gcc/arm-none-eabi/4.8.2/../../../../arm-none-eabi/lib/thumb\libg.a(lib_a-envlock.o)
                              c:/nds/devkitpro/devkitarm/bin/../lib/gcc/arm-none-eabi/4.8.2/../../../../arm-none-eabi/lib/thumb\libg.a(lib_a-getenv_r.o) (__env_lock)
c:/nds/devkitpro/devkitarm/bin/../lib/gcc/arm-none-eabi/4.8.2/../../../../arm-none-eabi/lib/thumb\libsysbase.a(iosupport.o)
                              c:/nds/devkitPro/libnds/lib\libfat.a(libfat.o) (FindDevice)
c:/nds/devkitpro/devkitarm/bin/../lib/gcc/arm-none-eabi/4.8.2/../../../../arm-none-eabi/lib/thumb\libsysbase.a(close.o)
                              c:/nds/devkitpro/devkitarm/bin/../lib/gcc/arm-none-eabi/4.8.2/../../../../arm-none-eabi/lib/thumb\libg.a(lib_a-stdio.o) (_close_r)
c:/nds/devkitpro/devkitarm/bin/../lib/gcc/arm-none-eabi/4.8.2/../../../../arm-none-eabi/lib/thumb\libsysbase.a(fstat.o)
                              c:/nds/devkitpro/devkitarm/bin/../lib/gcc/arm-none-eabi/4.8.2/../../../../arm-none-eabi/lib/thumb\libg.a(lib_a-fseeko.o) (_fstat_r)
c:/nds/devkitpro/devkitarm/bin/../lib/gcc/arm-none-eabi/4.8.2/../../../../arm-none-eabi/lib/thumb\libsysbase.a(getpid.o)
                              c:/nds/devkitpro/devkitarm/bin/../lib/gcc/arm-none-eabi/4.8.2/../../../../arm-none-eabi/lib/thumb\libg.a(lib_a-signal.o) (_getpid_r)
c:/nds/devkitpro/devkitarm/bin/../lib/gcc/arm-none-eabi/4.8.2/../../../../arm-none-eabi/lib/thumb\libsysbase.a(isatty.o)
                              c:/nds/devkitpro/devkitarm/bin/../lib/gcc/arm-none-eabi/4.8.2/../../../../arm-none-eabi/lib/thumb\libg.a(lib_a-makebuf.o) (_isatty_r)
c:/nds/devkitpro/devkitarm/bin/../lib/gcc/arm-none-eabi/4.8.2/../../../../arm-none-eabi/lib/thumb\libsysbase.a(kill.o)
                              c:/nds/devkitpro/devkitarm/bin/../lib/gcc/arm-none-eabi/4.8.2/../../../../arm-none-eabi/lib/thumb\libg.a(lib_a-signal.o) (_kill_r)
c:/nds/devkitpro/devkitarm/bin/../lib/gcc/arm-none-eabi/4.8.2/../../../../arm-none-eabi/lib/thumb\libsysbase.a(lseek.o)
                              c:/nds/devkitpro/devkitarm/bin/../lib/gcc/arm-none-eabi/4.8.2/../../../../arm-none-eabi/lib/thumb\libg.a(lib_a-stdio.o) (_lseek_r)
c:/nds/devkitpro/devkitarm/bin/../lib/gcc/arm-none-eabi/4.8.2/../../../../arm-none-eabi/lib/thumb\libsysbase.a(open.o)
                              c:/nds/devkitpro/devkitarm/bin/../lib/gcc/arm-none-eabi/4.8.2/../../../../arm-none-eabi/lib/thumb\libg.a(lib_a-fopen.o) (_open_r)
c:/nds/devkitpro/devkitarm/bin/../lib/gcc/arm-none-eabi/4.8.2/../../../../arm-none-eabi/lib/thumb\libsysbase.a(read.o)
                              c:/nds/devkitpro/devkitarm/bin/../lib/gcc/arm-none-eabi/4.8.2/../../../../arm-none-eabi/lib/thumb\libg.a(lib_a-stdio.o) (_read_r)
c:/nds/devkitpro/devkitarm/bin/../lib/gcc/arm-none-eabi/4.8.2/../../../../arm-none-eabi/lib/thumb\libsysbase.a(sbrk.o)
                              c:/nds/devkitpro/devkitarm/bin/../lib/gcc/arm-none-eabi/4.8.2/../../../../arm-none-eabi/lib/thumb\libg.a(lib_a-freer.o) (_sbrk_r)
c:/nds/devkitpro/devkitarm/bin/../lib/gcc/arm-none-eabi/4.8.2/../../../../arm-none-eabi/lib/thumb\libsysbase.a(times.o)
                              c:/nds/devkitpro/devkitarm/bin/../lib/gcc/arm-none-eabi/4.8.2/../../../../arm-none-eabi/lib/thumb\libg.a(lib_a-time.o) (_gettimeofday_r)
c:/nds/devkitpro/devkitarm/bin/../lib/gcc/arm-none-eabi/4.8.2/../../../../arm-none-eabi/lib/thumb\libsysbase.a(write.o)
                              c:/nds/devkitpro/devkitarm/bin/../lib/gcc/arm-none-eabi/4.8.2/../../../../arm-none-eabi/lib/thumb\libg.a(lib_a-stdio.o) (_write_r)
c:/nds/devkitpro/devkitarm/bin/../lib/gcc/arm-none-eabi/4.8.2/../../../../arm-none-eabi/lib/thumb\libsysbase.a(_exit.o)
                              c:/nds/devkitpro/devkitarm/bin/../lib/gcc/arm-none-eabi/4.8.2/../../../../arm-none-eabi/lib/thumb\libg.a(lib_a-abort.o) (_exit)
c:/nds/devkitpro/devkitarm/bin/../lib/gcc/arm-none-eabi/4.8.2/../../../../arm-none-eabi/lib/thumb\libsysbase.a(malloc_vars.o)
                              c:/nds/devkitpro/devkitarm/bin/../lib/gcc/arm-none-eabi/4.8.2/../../../../arm-none-eabi/lib/thumb/ds_arm9_crt0.o (fake_heap_start)
c:/nds/devkitpro/devkitarm/bin/../lib/gcc/arm-none-eabi/4.8.2/../../../../arm-none-eabi/lib/thumb\libsysbase.a(chdir.o)
                              c:/nds/Projects/Tutoriales/Tutorial1MenuInicial/nflib/lib\libnflib.a(nf_basic.o) (chdir)
c:/nds/devkitpro/devkitarm/bin/../lib/gcc/arm-none-eabi/4.8.2/../../../../arm-none-eabi/lib/thumb\libsysbase.a(build_argv.o)
                              c:/nds/devkitpro/devkitarm/bin/../lib/gcc/arm-none-eabi/4.8.2/../../../../arm-none-eabi/lib/thumb/ds_arm9_crt0.o (build_argv)
c:/nds/devkitpro/devkitarm/bin/../lib/gcc/arm-none-eabi/4.8.2/../../../../arm-none-eabi/lib/thumb\libsysbase.a(syscall_support.o)
                              c:/nds/devkitPro/libnds/lib\libnds9.a(initSystem.o) (__syscalls)
c:/nds/devkitpro/devkitarm/bin/../lib/gcc/arm-none-eabi/4.8.2/../../../../arm-none-eabi/lib/thumb\libsysbase.a(handle_manager.o)
                              c:/nds/devkitpro/devkitarm/bin/../lib/gcc/arm-none-eabi/4.8.2/../../../../arm-none-eabi/lib/thumb\libsysbase.a(close.o) (__release_handle)
c:/nds/devkitpro/devkitarm/bin/../lib/gcc/arm-none-eabi/4.8.2/thumb\libgcc.a(_arm_addsubdf3.o)
                              c:/nds/devkitpro/devkitarm/bin/../lib/gcc/arm-none-eabi/4.8.2/../../../../arm-none-eabi/lib/thumb\libg.a(lib_a-dtoa.o) (__aeabi_dsub)
c:/nds/devkitpro/devkitarm/bin/../lib/gcc/arm-none-eabi/4.8.2/thumb\libgcc.a(_arm_muldivdf3.o)
                              c:/nds/devkitpro/devkitarm/bin/../lib/gcc/arm-none-eabi/4.8.2/../../../../arm-none-eabi/lib/thumb\libg.a(lib_a-dtoa.o) (__aeabi_dmul)
c:/nds/devkitpro/devkitarm/bin/../lib/gcc/arm-none-eabi/4.8.2/thumb\libgcc.a(_arm_cmpdf2.o)
                              c:/nds/devkitpro/devkitarm/bin/../lib/gcc/arm-none-eabi/4.8.2/../../../../arm-none-eabi/lib/thumb\libg.a(lib_a-svfprintf.o) (__aeabi_dcmpeq)
c:/nds/devkitpro/devkitarm/bin/../lib/gcc/arm-none-eabi/4.8.2/thumb\libgcc.a(_arm_fixdfsi.o)
                              c:/nds/devkitpro/devkitarm/bin/../lib/gcc/arm-none-eabi/4.8.2/../../../../arm-none-eabi/lib/thumb\libg.a(lib_a-dtoa.o) (__aeabi_d2iz)
c:/nds/devkitpro/devkitarm/bin/../lib/gcc/arm-none-eabi/4.8.2/thumb\libgcc.a(_aeabi_uldivmod.o)
                              c:/nds/devkitpro/devkitarm/bin/../lib/gcc/arm-none-eabi/4.8.2/../../../../arm-none-eabi/lib/thumb\libg.a(lib_a-svfprintf.o) (__aeabi_uldivmod)
c:/nds/devkitpro/devkitarm/bin/../lib/gcc/arm-none-eabi/4.8.2/thumb\libgcc.a(bpabi.o)
                              c:/nds/devkitpro/devkitarm/bin/../lib/gcc/arm-none-eabi/4.8.2/thumb\libgcc.a(_aeabi_uldivmod.o) (__gnu_uldivmod_helper)
c:/nds/devkitpro/devkitarm/bin/../lib/gcc/arm-none-eabi/4.8.2/thumb\libgcc.a(_divdi3.o)
                              c:/nds/devkitpro/devkitarm/bin/../lib/gcc/arm-none-eabi/4.8.2/thumb\libgcc.a(bpabi.o) (__divdi3)
c:/nds/devkitpro/devkitarm/bin/../lib/gcc/arm-none-eabi/4.8.2/thumb\libgcc.a(_udivdi3.o)
                              c:/nds/devkitpro/devkitarm/bin/../lib/gcc/arm-none-eabi/4.8.2/thumb\libgcc.a(bpabi.o) (__udivdi3)
c:/nds/devkitpro/devkitarm/bin/../lib/gcc/arm-none-eabi/4.8.2/thumb\libgcc.a(_clzsi2.o)
                              c:/nds/devkitpro/devkitarm/bin/../lib/gcc/arm-none-eabi/4.8.2/thumb\libgcc.a(_divdi3.o) (__clzsi2)
c:/nds/devkitpro/devkitarm/bin/../lib/gcc/arm-none-eabi/4.8.2/../../../../arm-none-eabi/lib/thumb\libg.a(lib_a-errno.o)
                              c:/nds/devkitpro/devkitarm/bin/../lib/gcc/arm-none-eabi/4.8.2/../../../../arm-none-eabi/lib/thumb\libsysbase.a(times.o) (__errno)

Allocating common symbols
Common symbol       size              file

currentCopy         0x5c              c:/nds/devkitPro/libnds/lib\libnds9.a(console.o)
NF_BUFFER_BGTILES   0x100             c:/nds/Projects/Tutoriales/Tutorial1MenuInicial/nflib/lib\libnflib.a(nf_tiledbg.o)
NF_TILEBLOCKS       0x10              c:/nds/Projects/Tutoriales/Tutorial1MenuInicial/nflib/lib\libnflib.a(nf_tiledbg.o)
NF_BUFFER_BGMAP     0x100             c:/nds/Projects/Tutoriales/Tutorial1MenuInicial/nflib/lib\libnflib.a(nf_tiledbg.o)
NF_SPR256GFX        0xc00             c:/nds/Projects/Tutoriales/Tutorial1MenuInicial/nflib/lib\libnflib.a(nf_sprite256.o)
fifo_datamsg_data   0x40              c:/nds/devkitPro/libnds/lib\libnds9.a(fifosystem.o)
__dsimode           0x1               c:/nds/devkitPro/libnds/lib\libnds9.a(initSystem.o)
NF_BANKS_TILES      0x2               c:/nds/Projects/Tutoriales/Tutorial1MenuInicial/nflib/lib\libnflib.a(nf_tiledbg.o)
bgState             0x140             c:/nds/devkitPro/libnds/lib\libnds9.a(background.o)
fifo_buffer         0x800             c:/nds/devkitPro/libnds/lib\libnds9.a(fifosystem.o)
NF_TEXVRAM          0x818             c:/nds/Projects/Tutoriales/Tutorial1MenuInicial/nflib/lib\libnflib.a(nf_sprite3d.o)
NF_BUFFER_SPR256PAL
                    0x100             c:/nds/Projects/Tutoriales/Tutorial1MenuInicial/nflib/lib\libnflib.a(nf_sprite256.o)
bgIsTextLut         0x8               c:/nds/devkitPro/libnds/lib\libnds9.a(background.o)
NF_TEXPALSLOT       0x40              c:/nds/Projects/Tutoriales/Tutorial1MenuInicial/nflib/lib\libnflib.a(nf_sprite3d.o)
fifo_value32_func   0x40              c:/nds/devkitPro/libnds/lib\libnds9.a(fifosystem.o)
fifo_address_func   0x40              c:/nds/devkitPro/libnds/lib\libnds9.a(fifosystem.o)
NF_BUFFER_SPR256GFX
                    0x400             c:/nds/Projects/Tutoriales/Tutorial1MenuInicial/nflib/lib\libnflib.a(nf_sprite256.o)
NF_SPRITEOAM        0x2400            c:/nds/Projects/Tutoriales/Tutorial1MenuInicial/nflib/lib\libnflib.a(nf_sprite256.o)
NF_SPR256VRAM       0x1400            c:/nds/Projects/Tutoriales/Tutorial1MenuInicial/nflib/lib\libnflib.a(nf_sprite256.o)
NF_ROOTFOLDER       0x20              c:/nds/Projects/Tutoriales/Tutorial1MenuInicial/nflib/lib\libnflib.a(nf_basic.o)
NF_3DSPRITE         0x4000            c:/nds/Projects/Tutoriales/Tutorial1MenuInicial/nflib/lib\libnflib.a(nf_sprite3d.o)
fifo_value32_data   0x40              c:/nds/devkitPro/libnds/lib\libnds9.a(fifosystem.o)
NF_SPRVRAM          0x838             c:/nds/Projects/Tutoriales/Tutorial1MenuInicial/nflib/lib\libnflib.a(nf_sprite256.o)
NF_BANKS_MAPS       0x2               c:/nds/Projects/Tutoriales/Tutorial1MenuInicial/nflib/lib\libnflib.a(nf_tiledbg.o)
fifo_value32_queue  0x40              c:/nds/devkitPro/libnds/lib\libnds9.a(fifosystem.o)
fifo_data_queue     0x40              c:/nds/devkitPro/libnds/lib\libnds9.a(fifosystem.o)
OamMemorySub        0x400             c:/nds/devkitPro/libnds/lib\libnds9.a(sprite.o)
NF_SPRPALSLOT       0x40              c:/nds/Projects/Tutoriales/Tutorial1MenuInicial/nflib/lib\libnflib.a(nf_sprite256.o)
NF_EXBGPAL          0x600             c:/nds/Projects/Tutoriales/Tutorial1MenuInicial/nflib/lib\libnflib.a(nf_tiledbg.o)
NF_TILEDBG_LAYERS   0x90              c:/nds/Projects/Tutoriales/Tutorial1MenuInicial/nflib/lib\libnflib.a(nf_tiledbg.o)
NF_TEXT             0x50              c:/nds/Projects/Tutoriales/Tutorial1MenuInicial/nflib/lib\libnflib.a(nf_text.o)
NF_MAPBLOCKS        0x20              c:/nds/Projects/Tutoriales/Tutorial1MenuInicial/nflib/lib\libnflib.a(nf_tiledbg.o)
NF_SPR256PAL        0x200             c:/nds/Projects/Tutoriales/Tutorial1MenuInicial/nflib/lib\libnflib.a(nf_sprite256.o)
NF_BUFFER_BGPAL     0x100             c:/nds/Projects/Tutoriales/Tutorial1MenuInicial/nflib/lib\libnflib.a(nf_tiledbg.o)
NF_CREATED_3DSPRITE
                    0x402             c:/nds/Projects/Tutoriales/Tutorial1MenuInicial/nflib/lib\libnflib.a(nf_sprite3d.o)
punixTime           0x4               c:/nds/devkitpro/devkitarm/bin/../lib/gcc/arm-none-eabi/4.8.2/../../../../arm-none-eabi/lib/thumb\libsysbase.a(times.o)
NF_TILEDBG          0xd00             c:/nds/Projects/Tutoriales/Tutorial1MenuInicial/nflib/lib\libnflib.a(nf_tiledbg.o)
fifo_address_data   0x40              c:/nds/devkitPro/libnds/lib\libnds9.a(fifosystem.o)
NF_TEX256VRAM       0x1400            c:/nds/Projects/Tutoriales/Tutorial1MenuInicial/nflib/lib\libnflib.a(nf_sprite3d.o)
glGlobalData        0x54              c:/nds/devkitPro/libnds/lib\libnds9.a(videoGL.o)
fifo_datamsg_func   0x40              c:/nds/devkitPro/libnds/lib\libnds9.a(fifosystem.o)
OamMemory           0x400             c:/nds/devkitPro/libnds/lib\libnds9.a(sprite.o)
fifo_address_queue  0x40              c:/nds/devkitPro/libnds/lib\libnds9.a(fifosystem.o)

Memory Configuration

Name             Origin             Length             Attributes
rom              0x08000000         0x02000000
ewram            0x02000000         0x003ff000
dtcm             0x0b000000         0x00004000
vectors          0x01000000         0x00000100
itcm             0x01000100         0x00007f00
*default*        0x00000000         0xffffffff

Linker script and memory map

                0x01000000                __vectors_start = ORIGIN (vectors)
                0x01000100                __itcm_start = ORIGIN (itcm)
                0x023ff000                __ewram_end = (ORIGIN (ewram) + 0x3ff000)
                0x023ff000                __eheap_end = (ORIGIN (ewram) + 0x3ff000)
                0x0b000000                __dtcm_start = ORIGIN (dtcm)
                0x0b004000                __dtcm_top = (ORIGIN (dtcm) + 0x4000)
                0x0b003ff8                __irq_flags = (__dtcm_top - 0x8)
                0x0b003ffc                __irq_vector = (__dtcm_top - 0x4)
                0x0b003f00                __sp_svc = (__dtcm_top - 0x100)
                0x0b003e00                __sp_irq = (__sp_svc - 0x100)
                0x0b003d00                __sp_usr = (__sp_irq - 0x100)

.init           0x02000000      0x23c
                0x02000000                __text_start = .
 *(.init)
 .init          0x02000000      0x230 c:/nds/devkitpro/devkitarm/bin/../lib/gcc/arm-none-eabi/4.8.2/../../../../arm-none-eabi/lib/thumb/ds_arm9_crt0.o
                0x02000000                _start
 .init          0x02000230        0x4 c:/nds/devkitpro/devkitarm/bin/../lib/gcc/arm-none-eabi/4.8.2/thumb/crti.o
                0x02000230                _init
 .init          0x02000234        0x8 c:/nds/devkitpro/devkitarm/bin/../lib/gcc/arm-none-eabi/4.8.2/thumb/crtn.o
                0x0200023c                . = ALIGN (0x4)

.plt
 *(.plt)

.text           0x02000240    0x2e698
 *(EXCLUDE_FILE(*.itcm*) .text)
 .text          0x02000240        0x0 c:/nds/devkitpro/devkitarm/bin/../lib/gcc/arm-none-eabi/4.8.2/../../../../arm-none-eabi/lib/thumb/ds_arm9_crt0.o
 .text          0x02000240        0x0 c:/nds/devkitpro/devkitarm/bin/../lib/gcc/arm-none-eabi/4.8.2/thumb/crti.o
 .text          0x02000240       0xd0 c:/nds/devkitpro/devkitarm/bin/../lib/gcc/arm-none-eabi/4.8.2/thumb/crtbegin.o
 .text          0x02000310       0x6c Background.o
                0x02000310                CBackground::CBackground(char*, unsigned char, unsigned char)
                0x02000310                CBackground::CBackground(char*, unsigned char, unsigned char)
                0x02000320                CBackground::~CBackground()
                0x02000320                CBackground::~CBackground()
                0x02000324                CBackground::CreateBackground(bool)
                0x02000358                CBackground::MoveBackgroundToPos(Vector2)
 .text          0x0200037c       0x48 Engine.o
                0x0200037c                CEngine::CEngine()
                0x0200037c                CEngine::CEngine()
                0x020003b8                CEngine::~CEngine()
                0x020003b8                CEngine::~CEngine()
                0x020003bc                CEngine::ChangeScene(CEngine::Scenes)
                0x020003c0                CEngine::Update()
 .text          0x020003c4       0xb4 Input.o
                0x020003c4                CInput::CInput()
                0x020003c4                CInput::CInput()
                0x020003cc                CInput::~CInput()
                0x020003cc                CInput::~CInput()
                0x020003d0                CInput::checkDirections()
                0x02000428                CInput::incrementDirectionIndex()
                0x0200043c                CInput::incrementInputsIndex()
                0x02000450                CInput::Update()
 .text          0x02000478       0x10 Menu.o
                0x02000478                CMenu::CMenu()
                0x02000478                CMenu::CMenu()
                0x0200047c                CMenu::~CMenu()
                0x0200047c                CMenu::~CMenu()
                0x02000480                CMenu::ChangeScene(CMenu::Scenes)
                0x02000484                CMenu::Update()
 .text          0x02000488       0x68 Palette.o
                0x02000488                CPalette::CPalette(char*)
                0x02000488                CPalette::CPalette(char*)
                0x020004b8                CPalette::~CPalette()
                0x020004b8                CPalette::~CPalette()
                0x020004bc                CPalette::MovePaletteToVRam(bool)
 .text          0x020004f0      0x128 Sprite.o
                0x020004f0                CSprite::CSprite(char*, unsigned char, unsigned char)
                0x020004f0                CSprite::CSprite(char*, unsigned char, unsigned char)
                0x02000524                CSprite::CSprite(char*, char*, unsigned char, unsigned char)
                0x02000524                CSprite::CSprite(char*, char*, unsigned char, unsigned char)
                0x02000548                CSprite::~CSprite()
                0x02000548                CSprite::~CSprite()
                0x0200054c                CSprite::MoveSpriteToVRam(bool, bool)
                0x02000598                CSprite::CreateSprite(Vector2, bool, bool)
                0x020005f4                CSprite::MoveSpriteToPos(Vector2)
 .text          0x02000618       0xb4 Text.o
                0x02000618                CText::CText(char*, unsigned char, unsigned char)
                0x02000618                CText::CText(char*, unsigned char, unsigned char)
                0x02000634                CText::CText(CText&)
                0x02000634                CText::CText(CText&)
                0x02000650                CText::~CText()
                0x02000650                CText::~CText()
                0x02000654                CText::CreateLayer(bool)
                0x02000690                CText::WriteText(Vector2&, char*, ...)
 .text          0x020006cc        0x0 main.o
 .text          0x020006cc      0x884 c:/nds/Projects/Tutoriales/Tutorial1MenuInicial/nflib/lib\libnflib.a(nf_2d.o)
                0x020006cc                NF_Set2D
                0x02000730                NF_ShowBg
                0x020007ac                NF_HideBg
                0x02000850                NF_ScrollBg
                0x02000bb4                NF_MoveSprite
                0x02000bd4                NF_SpriteLayer
                0x02000bf0                NF_ShowSprite
                0x02000c10                NF_HflipSprite
                0x02000c2c                NF_GetSpriteHflip
                0x02000c48                NF_VflipSprite
                0x02000c64                NF_GetSpriteVflip
                0x02000c80                NF_SpriteFrame
                0x02000d50                NF_EnableSpriteRotScale
                0x02000de4                NF_DisableSpriteRotScale
                0x02000e58                NF_SpriteRotScale
 .text          0x02000f50      0x2c0 c:/nds/Projects/Tutoriales/Tutorial1MenuInicial/nflib/lib\libnflib.a(nf_3d.o)
                0x02000f50                NF_Set3D
                0x02000fa8                NF_InitOpenGL
                0x020011b4                NF_GetTextureSize
 .text          0x02001210      0x4a0 c:/nds/Projects/Tutoriales/Tutorial1MenuInicial/nflib/lib\libnflib.a(nf_basic.o)
                0x02001210                NF_Error
                0x020014bc                NF_SetRootFolder
                0x02001614                NF_DmaMemCopy
                0x020016a0                NF_GetLanguage
 .text          0x020016b0     0x1438 c:/nds/Projects/Tutoriales/Tutorial1MenuInicial/nflib/lib\libnflib.a(nf_sprite256.o)
                0x020016b0                NF_InitSpriteBuffers
                0x020016fc                NF_ResetSpriteBuffers
                0x02001730                NF_InitSpriteSys
                0x0200196c                NF_LoadSpriteGfx
                0x02001a88                NF_UnloadSpriteGfx
                0x02001af8                NF_LoadSpritePal
                0x02001bf8                NF_UnloadSpritePal
                0x02001c48                NF_VramSpriteGfx
                0x02001fa0                NF_VramSpriteGfxDefrag
                0x020021d4                NF_FreeSpriteGfx
                0x020022d4                NF_VramSpritePal
                0x020023a8                NF_CreateSprite
                0x02002754                NF_DeleteSprite
                0x020027f8                NF_SpriteOamSet
                0x020028d8                NF_SpriteSetPalColor
                0x02002970                NF_SpriteEditPalColor
                0x020029ec                NF_SpriteUpdatePalette
                0x02002a7c                NF_SpriteGetPalColor
 .text          0x02002ae8     0x11cc c:/nds/Projects/Tutoriales/Tutorial1MenuInicial/nflib/lib\libnflib.a(nf_sprite3d.o)
                0x02002ae8                NF_Init3dSpriteSys
                0x02002c48                NF_Vram3dSpriteGfx
                0x02002f0c                NF_Vram3dSpriteGfxDefrag
                0x020030d4                NF_Free3dSpriteGfx
                0x02003194                NF_Vram3dSpritePal
                0x02003224                NF_Create3dSprite
                0x02003380                NF_Delete3dSprite
                0x0200347c                NF_Sort3dSprites
                0x02003514                NF_Set3dSpritePriority
                0x020035ec                NF_Swap3dSpritePriority
                0x02003618                NF_Move3dSprite
                0x02003628                NF_Show3dSprite
                0x02003638                NF_Set3dSpriteFrame
                0x020036e8                NF_Draw3dSprites
                0x02003948                NF_Update3dSpritesGfx
                0x020039f8                NF_Rotate3dSprite
                0x02003a40                NF_Scale3dSprite
                0x02003a7c                NF_Blend3dSprite
                0x02003aa4                NF_3dSpritesLayer
                0x02003b54                NF_3dSpriteEditPalColor
                0x02003bc4                NF_3dSpriteUpdatePalette
                0x02003c1c                NF_3dSpriteGetPalColor
                0x02003c80                NF_3dSpriteSetDeep
 .text          0x02003cb4      0x85c c:/nds/Projects/Tutoriales/Tutorial1MenuInicial/nflib/lib\libnflib.a(nf_text.o)
                0x02003cb4                NF_InitTextSys
                0x02003ce8                NF_LoadTextFont
                0x02003f50                NF_UnloadTextFont
                0x02003f58                NF_CreateTextLayer
                0x02003fec                NF_DeleteTextLayer
                0x02004044                NF_WriteText
                0x02004394                NF_UpdateTextLayers
                0x020043e8                NF_ClearTextLayer
                0x02004450                NF_DefineTextColor
                0x020044f4                NF_SetTextColor
 .text          0x02004510     0x1a64 c:/nds/Projects/Tutoriales/Tutorial1MenuInicial/nflib/lib\libnflib.a(nf_tiledbg.o)
                0x02004510                NF_InitTiledBgBuffers
                0x020045c8                NF_ResetTiledBgBuffers
                0x02004618                NF_InitTiledBgSys
                0x0200474c                NF_LoadTiledBg
                0x020049e0                NF_LoadTilesForBg
                0x02004c6c                NF_UnloadTiledBg
                0x02004d28                NF_DeleteTiledBg
                0x02004ed0                NF_CreateTiledBg
                0x0200553c                NF_GetTileMapAddress
                0x020055f8                NF_GetTileOfMap
                0x02005634                NF_SetTileOfMap
                0x02005678                NF_UpdateVramMap
                0x02005798                NF_BgSetPalColor
                0x02005848                NF_BgEditPalColor
                0x020058ec                NF_BgUpdatePalette
                0x020059ac                NF_BgGetPalColor
                0x02005a44                NF_GetTilePal
                0x02005a78                NF_SetTilePal
                0x02005ac0                NF_LoadExBgPal
                0x02005bac                NF_UnloadExBgPal
                0x02005bfc                NF_VramExBgPal
                0x02005cb0                NF_SetExBgPal
                0x02005d70                NF_SetTileHflip
                0x02005dac                NF_SetTileVflip
                0x02005de8                NF_RotateTileGfx
 .text          0x02005f74      0x9f4 c:/nds/devkitPro/libnds/lib\libfilesystem.a(nitrofs.o)
                0x0200685c                nitroFSInit
 .text          0x02006968      0x33c c:/nds/devkitPro/libnds/lib\libfat.a(libfat.o)
                0x02006968                fatMount
                0x02006a24                fatMountSimple
                0x02006a38                fatUnmount
                0x02006a6c                fatInit
                0x02006bb8                fatInitDefault
                0x02006bc4                fatGetVolumeLabel
 .text          0x02006ca4      0x728 c:/nds/devkitPro/libnds/lib\libfat.a(partition.o)
                0x02006ca4                FindFirstValidPartition_buf
                0x02006e2c                FindFirstValidPartition
                0x02006e54                _FAT_partition_getPartitionFromPath
                0x02006e68                _FAT_partition_createFSinfo
                0x02006f24                _FAT_partition_readFSinfo
                0x02006fdc                _FAT_partition_constructor_buf
                0x02007284                _FAT_partition_constructor
                0x020072c4                _FAT_partition_writeFSinfo
                0x02007370                _FAT_partition_destructor
                0x020073b0                _FAT_getCwdClusterPtr
 .text          0x020073cc      0x4ac c:/nds/devkitPro/libnds/lib\libfat.a(cache.o)
                0x020074bc                _FAT_cache_constructor
                0x02007558                _FAT_cache_readSectors
                0x020075bc                _FAT_cache_readPartialSector
                0x020075f8                _FAT_cache_readLittleEndianValue
                0x0200765c                _FAT_cache_writePartialSector
                0x020076a4                _FAT_cache_writeLittleEndianValue
                0x020076f4                _FAT_cache_eraseWritePartialSector
                0x0200774c                _FAT_cache_writeSectors
                0x020077b8                _FAT_cache_flush
                0x02007814                _FAT_cache_destructor
                0x02007848                _FAT_cache_invalidate
 .text          0x02007878     0x1444 c:/nds/devkitPro/libnds/lib\libfat.a(directory.o)
                0x02007b1c                _FAT_directory_entryGetCluster
                0x02007b38                _FAT_directory_getNextEntry
                0x02007dac                _FAT_directory_getFirstEntry
                0x02007dcc                _FAT_directory_getRootEntry
                0x02007e28                _FAT_directory_getVolumeLabel
                0x02007ee8                _FAT_directory_entryFromPosition
                0x02008018                _FAT_directory_entryFromPath
                0x02008254                _FAT_directory_removeEntry
                0x02008324                _FAT_directory_addEntry
                0x02008b94                _FAT_directory_chdir
                0x02008be4                _FAT_directory_entryStat
 .text          0x02008cbc        0x8 c:/nds/devkitPro/libnds/lib\libfat.a(disc.o)
 .text          0x02008cc4      0x950 c:/nds/devkitPro/libnds/lib\libfat.a(fatdir.o)
                0x02008cc4                _FAT_stat_r
                0x02008d60                _FAT_link_r
                0x02008d6c                _FAT_unlink_r
                0x02008ee0                _FAT_chdir_r
                0x02008f50                _FAT_rename_r
                0x0200911c                _FAT_mkdir_r
                0x020093dc                _FAT_statvfs_r
                0x02009464                _FAT_diropen_r
                0x02009524                _FAT_dirreset_r
                0x02009570                _FAT_dirnext_r
                0x020095f4                _FAT_dirclose_r
 .text          0x02009614     0x13a8 c:/nds/devkitPro/libnds/lib\libfat.a(fatfile.o)
                0x0200995c                _FAT_findEntry
                0x02009998                FAT_getAttr
                0x020099c0                FAT_setAttr
                0x02009a60                _FAT_open_r
                0x02009da0                _FAT_syncToDisc
                0x02009dc0                _FAT_close_r
                0x02009e38                _FAT_read_r
                0x0200a164                _FAT_write_r
                0x0200a600                _FAT_seek_r
                0x0200a774                _FAT_fstat_r
                0x0200a80c                _FAT_ftruncate_r
                0x0200a974                _FAT_fsync_r
 .text          0x0200a9bc      0x4c0 c:/nds/devkitPro/libnds/lib\libfat.a(file_allocation_table.o)
                0x0200ab0c                _FAT_fat_nextCluster
                0x0200ac28                _FAT_fat_linkFreeCluster
                0x0200acc0                _FAT_fat_linkFreeClusterCleared
                0x0200ad30                _FAT_fat_clearLinks
                0x0200ad94                _FAT_fat_trimChain
                0x0200ae1c                _FAT_fat_lastCluster
                0x0200ae50                _FAT_fat_freeClusterCount
 .text          0x0200ae7c       0xb8 c:/nds/devkitPro/libnds/lib\libfat.a(filetime.o)
                0x0200ae7c                _FAT_filetime_getTimeFromRTC
                0x0200aebc                _FAT_filetime_getDateFromRTC
                0x0200aefc                _FAT_filetime_to_time_t
 .text          0x0200af34       0x10 c:/nds/devkitPro/libnds/lib\libfat.a(lock.o)
                0x0200af34                _FAT_lock_init
                0x0200af38                _FAT_lock_deinit
                0x0200af3c                _FAT_lock
                0x0200af40                _FAT_unlock
 .text          0x0200af44      0xa28 c:/nds/devkitPro/libnds/lib\libnds9.a(console.o)
                0x0200aff0                nocash_write
                0x0200b000                consoleGetDefault
                0x0200b00c                consoleSelect
                0x0200b01c                consoleDebugInit
                0x0200b070                consolePrintChar
                0x0200b23c                consoleLoadFont
                0x0200b4cc                consoleSetFont
                0x0200b4ec                consoleInit
                0x0200b654                consoleDemoInit
                0x0200b698                con_write
                0x0200b938                consoleClear
                0x0200b948                consoleSetWindow
 .text          0x0200b96c      0x104 c:/nds/devkitPro/libnds/lib\libnds9.a(keys.o)
                0x0200b96c                scanKeys
                0x0200b9e0                keysHeld
                0x0200b9ec                keysDown
                0x0200b9fc                keysDownRepeat
                0x0200ba0c                keysSetRepeat
                0x0200ba24                keysUp
                0x0200ba34                keysCurrent
 .text          0x0200ba70      0x3f0 c:/nds/devkitPro/libnds/lib\libnds9.a(sprite.o)
                0x0200ba70                oamInit
                0x0200bb80                oamDisable
                0x0200bbb0                oamEnable
                0x0200bbd4                oamGetGfxPtr
                0x0200bc08                oamClear
                0x0200bc30                oamGfxPtrToOffset
                0x0200bc64                oamSet
                0x0200bdb4                oamUpdate
                0x0200be14                oamRotateScale
 .text          0x0200be60      0x488 c:/nds/devkitPro/libnds/lib\libnds9.a(sprite_alloc.o)
                0x0200be90                oamAllocReset
                0x0200beac                oamAllocateGfx
                0x0200c0f8                oamFreeGfx
                0x0200c294                oamCountFragments
 .text          0x0200c2e8      0x240 c:/nds/devkitPro/libnds/lib\libnds9.a(trig.o)
                0x0200c2e8                asinComp
                0x0200c310                sinLutLookup
                0x0200c348                sinLerp
                0x0200c380                cosLerp
                0x0200c394                tanLutLookup
                0x0200c3cc                tanLerp
                0x0200c470                asinLerp
                0x0200c4ec                acosLerp
                0x0200c500                atanComp
 .text          0x0200c528      0x1f8 c:/nds/devkitPro/libnds/lib\libnds9.a(video.o)
                0x0200c528                vramSetPrimaryBanks
                0x0200c56c                vramSetMainBanks
                0x0200c5b0                vramSetBanks_EFG
                0x0200c5e8                vramRestorePrimaryBanks
                0x0200c5f4                vramRestoreMainBanks
                0x0200c600                vramRestoreBanks_EFG
                0x0200c60c                setBrightness
                0x0200c64c                vramDefault
 .text          0x0200c720     0x18a4 c:/nds/devkitPro/libnds/lib\libnds9.a(videoGL.o)
                0x0200c720                glGetGlobals
                0x0200c728                glRotatef32i
                0x0200ca08                glMaterialf
                0x0200ca74                glTexCoord2f32
                0x0200cae8                vramBlock_init
                0x0200cb50                vramBlock_Construct
                0x0200cb78                vramBlock_terminate
                0x0200cba4                vramBlock_Deconstruct
                0x0200cbb8                vramBlock__allocateBlock
                0x0200cd84                vramBlock__deallocateBlock
                0x0200cea8                vramBlock_examineSpecial
                0x0200d108                vramBlock_allocateSpecial
                0x0200d11c                vramBlock_allocateBlock
                0x0200d14c                vramBlock_deallocateBlock
                0x0200d18c                vramBlock_deallocateAll
                0x0200d19c                vramBlock_getAddr
                0x0200d1b0                vramBlock_getSize
                0x0200d1c4                glInit_C
                0x0200d368                glResetTextures
                0x0200d400                removePaletteFromTexture
                0x0200d46c                glGenTextures
                0x0200d504                glDeleteTextures
                0x0200d5d4                vramGetBank
                0x0200d694                glLockVRAMBank
                0x0200d768                glUnlockVRAMBank
                0x0200d81c                glBindTexture
                0x0200d87c                glColorTableEXT
                0x0200da58                glColorSubTableEXT
                0x0200daa8                glGetColorTableEXT
                0x0200dae4                glAssignColorTable
                0x0200db58                glTexParameter
                0x0200db90                glGetTexturePointer
                0x0200dbb0                glGetTexParameter
                0x0200dbd0                glGetColorTableParameterEXT
                0x0200dc08                glTexImage2D
 .text          0x0200dfc4      0x234 c:/nds/devkitPro/libnds/lib\libnds9.a(dldi.o)
                0x0200dfc4                dldiGetInternal
                0x0200dffc                dldiIsValid
                0x0200e034                dldiFixDriverAddresses
                0x0200e110                dldiLoadFromFile
                0x0200e1ec                dldiFree
 .text          0x0200e1f8      0x148 c:/nds/devkitPro/libnds/lib\libnds9.a(dsi_sd.o)
                0x0200e1f8                sdio_ClearStatus
                0x0200e208                sdio_Shutdown
                0x0200e218                sdio_Startup
                0x0200e264                sdio_IsInserted
                0x0200e298                sdio_ReadSectors
                0x0200e2ec                sdio_WriteSectors
 .text          0x0200e340      0x140 c:/nds/devkitPro/libnds/lib\libnds9.a(initSystem.o)
                0x0200e340                initSystem
 .text          0x0200e480      0x23c c:/nds/devkitPro/libnds/lib\libnds9.a(card.o)
                0x0200e480                cardWriteCommand
                0x0200e4a4                cardPolledTransfer
                0x0200e4f4                cardStartTransfer
                0x0200e550                cardWriteAndRead
                0x0200e594                cardParamCommand
                0x0200e5c4                cardReadID
                0x0200e5ec                cardReset
                0x0200e660                cardReadHeader
 .text          0x0200e6bc      0xce0 c:/nds/devkitPro/libnds/lib\libnds9.a(fifosystem.o)
                0x0200e934                fifoSendAddress
                0x0200e960                fifoSendValue32
                0x0200e99c                fifoSendDatamsg
                0x0200ea0c                fifoGetAddress
                0x0200ea80                fifoSetAddressHandler
                0x0200eafc                fifoGetValue32
                0x0200eb70                fifoSetValue32Handler
                0x0200ebec                fifoGetDatamsg
                0x0200f090                fifoSetDatamsgHandler
                0x0200f134                fifoCheckAddress
                0x0200f15c                fifoCheckDatamsg
                0x0200f184                fifoCheckDatamsgLength
                0x0200f1bc                fifoCheckValue32
                0x0200f1e4                fifoInit
 .text          0x0200f39c      0x1ec c:/nds/devkitPro/libnds/lib\libnds9.a(interrupts.o)
                0x0200f39c                irqDummy
                0x0200f3a0                irqSet
                0x0200f40c                irqInit
                0x0200f458                irqInitHandler
                0x0200f488                irqEnable
                0x0200f4ec                irqDisable
                0x0200f550                irqClear
 .text          0x0200f588       0x58 c:/nds/devkitPro/libnds/lib\libnds9.a(libnds_exit.arm.o)
                0x0200f588                systemErrorExit
                0x0200f58c                __libnds_exit
 .text          0x0200f5e0       0x70 c:/nds/devkitPro/libnds/lib\libnds9.a(dcache.o)
                0x0200f5e0                DC_FlushAll
                0x0200f60c                DC_FlushRange
                0x0200f628                DC_InvalidateAll
                0x0200f634                DC_InvalidateRange
 *fill*         0x0200f650       0x30 ff
 .text          0x0200f680     0x8000 c:/nds/devkitPro/libnds/lib\libnds9.a(dldi_stub.o)
                0x0200f680                _io_dldi_stub
 .text          0x02017680      0x1b4 c:/nds/devkitPro/libnds/lib\libnds9.a(mpu_setup.o)
                0x02017680                __libnds_mpu_setup
                0x020177c0                memCached
                0x020177d8                memUncached
 *fill*         0x02017834        0xc ff
 .text          0x02017840       0x70 c:/nds/devkitPro/libnds/lib\libnds9.a(biosCalls.o)
                0x02017840                swiDelay
                0x02017844                swiIntrWait
                0x02017848                swiWaitForVBlank
                0x0201784c                swiSleep
                0x02017850                swiChangeSoundBias
                0x02017854                swiDivide
                0x02017858                swiRemainder
                0x0201785e                swiDivMod
                0x0201786a                swiCopy
                0x0201786e                swiFastCopy
                0x02017872                swiSqrt
                0x02017876                swiCRC16
                0x0201787a                swiIsDebugger
                0x0201787e                swiUnpackBits
                0x02017882                swiDecompressLZSSWram
                0x02017886                swiDecompressLZSSVramNTR
                0x0201788a                swiDecompressLZSSVramTWL
                0x0201788e                swiDecompressHuffman
                0x02017892                swiDecompressRLEWram
                0x02017896                swiDecompressRLEVram
                0x0201789a                swiWaitForIRQ
                0x0201789e                swiDecodeDelta8
                0x020178a2                swiDecodeDelta16
                0x020178a6                swiSetHaltCR
 .text          0x020178b0       0xa4 c:/nds/devkitPro/libnds/lib\libnds9.a(debugprint.o)
                0x020178b0                nocashWrite
                0x020178b2                nocashMessage
 .text          0x02017954        0x0 c:/nds/devkitPro/libnds/lib\libnds9.a(interruptDispatcher.o)
 *fill*         0x02017954        0xc ff
 .text          0x02017960       0x30 c:/nds/devkitPro/libnds/lib\libnds9.a(swiSoftReset.o)
                0x02017960                swiSoftReset
 .text          0x02017990        0x0 c:/nds/devkitPro/libnds/lib\libnds9.a(default_font.bin.o)
 .text          0x02017990      0x334 c:/nds/devkitPro/libnds/lib\libnds9.a(background.o)
                0x02017990                bgIsText
                0x0201799c                checkIfText
                0x020179f4                bgUpdate
                0x02017af8                bgInit_call
                0x02017bd8                bgInitSub_call
 .text          0x02017cc4       0x8c c:/nds/devkitPro/libnds/lib\libnds9.a(dynamicArray.o)
                0x02017cc4                DynamicArrayInit
                0x02017cdc                DynamicArrayDelete
                0x02017cf0                DynamicArrayGet
                0x02017d08                DynamicArraySet
 .text          0x02017d50      0x128 c:/nds/devkitPro/libnds/lib\libnds9.a(system.o)
                0x02017d50                setSDcallback
                0x02017d5c                systemMsgHandler
                0x02017da0                systemSleep
                0x02017db8                systemValueHandler
                0x02017df4                powerOn
                0x02017e20                powerOff
                0x02017e48                ledBlink
                0x02017e58                getBatteryLevel
 .text          0x02017e78        0x0 c:/nds/devkitpro/devkitarm/bin/../lib/gcc/arm-none-eabi/4.8.2/../../../../arm-none-eabi/lib/thumb\libstdc++.a(new_op.o)
 .text          0x02017e78        0x0 c:/nds/devkitpro/devkitarm/bin/../lib/gcc/arm-none-eabi/4.8.2/../../../../arm-none-eabi/lib/thumb\libstdc++.a(eh_call.o)
 .text          0x02017e78        0x0 c:/nds/devkitpro/devkitarm/bin/../lib/gcc/arm-none-eabi/4.8.2/../../../../arm-none-eabi/lib/thumb\libstdc++.a(eh_personality.o)
 .text          0x02017e78        0x0 c:/nds/devkitpro/devkitarm/bin/../lib/gcc/arm-none-eabi/4.8.2/../../../../arm-none-eabi/lib/thumb\libstdc++.a(eh_terminate.o)
 .text          0x02017e78        0x0 c:/nds/devkitpro/devkitarm/bin/../lib/gcc/arm-none-eabi/4.8.2/../../../../arm-none-eabi/lib/thumb\libstdc++.a(eh_exception.o)
 .text          0x02017e78        0x0 c:/nds/devkitpro/devkitarm/bin/../lib/gcc/arm-none-eabi/4.8.2/../../../../arm-none-eabi/lib/thumb\libstdc++.a(eh_alloc.o)
 .text          0x02017e78        0x0 c:/nds/devkitpro/devkitarm/bin/../lib/gcc/arm-none-eabi/4.8.2/../../../../arm-none-eabi/lib/thumb\libstdc++.a(bad_alloc.o)
 .text          0x02017e78        0x0 c:/nds/devkitpro/devkitarm/bin/../lib/gcc/arm-none-eabi/4.8.2/../../../../arm-none-eabi/lib/thumb\libstdc++.a(class_type_info.o)
 .text          0x02017e78        0x0 c:/nds/devkitpro/devkitarm/bin/../lib/gcc/arm-none-eabi/4.8.2/../../../../arm-none-eabi/lib/thumb\libstdc++.a(new_handler.o)
 .text          0x02017e78        0x0 c:/nds/devkitpro/devkitarm/bin/../lib/gcc/arm-none-eabi/4.8.2/../../../../arm-none-eabi/lib/thumb\libstdc++.a(eh_arm.o)
 .text          0x02017e78        0x0 c:/nds/devkitpro/devkitarm/bin/../lib/gcc/arm-none-eabi/4.8.2/../../../../arm-none-eabi/lib/thumb\libstdc++.a(eh_throw.o)
 .text          0x02017e78        0x0 c:/nds/devkitpro/devkitarm/bin/../lib/gcc/arm-none-eabi/4.8.2/../../../../arm-none-eabi/lib/thumb\libstdc++.a(pure.o)
 .text          0x02017e78        0x0 c:/nds/devkitpro/devkitarm/bin/../lib/gcc/arm-none-eabi/4.8.2/../../../../arm-none-eabi/lib/thumb\libstdc++.a(eh_globals.o)
 .text          0x02017e78        0x0 c:/nds/devkitpro/devkitarm/bin/../lib/gcc/arm-none-eabi/4.8.2/../../../../arm-none-eabi/lib/thumb\libstdc++.a(eh_catch.o)
 .text          0x02017e78        0x0 c:/nds/devkitpro/devkitarm/bin/../lib/gcc/arm-none-eabi/4.8.2/../../../../arm-none-eabi/lib/thumb\libstdc++.a(si_class_type_info.o)
 .text          0x02017e78        0x0 c:/nds/devkitpro/devkitarm/bin/../lib/gcc/arm-none-eabi/4.8.2/../../../../arm-none-eabi/lib/thumb\libstdc++.a(eh_unex_handler.o)
 .text          0x02017e78        0x0 c:/nds/devkitpro/devkitarm/bin/../lib/gcc/arm-none-eabi/4.8.2/../../../../arm-none-eabi/lib/thumb\libstdc++.a(tinfo.o)
 .text          0x02017e78        0x0 c:/nds/devkitpro/devkitarm/bin/../lib/gcc/arm-none-eabi/4.8.2/../../../../arm-none-eabi/lib/thumb\libstdc++.a(eh_term_handler.o)
 .text          0x02017e78        0x0 c:/nds/devkitpro/devkitarm/bin/../lib/gcc/arm-none-eabi/4.8.2/../../../../arm-none-eabi/lib/thumb\libstdc++.a(del_op.o)
 .text          0x02017e78        0x0 c:/nds/devkitpro/devkitarm/bin/../lib/gcc/arm-none-eabi/4.8.2/../../../../arm-none-eabi/lib/thumb\libstdc++.a(vterminate.o)
 .text          0x02017e78        0x0 c:/nds/devkitpro/devkitarm/bin/../lib/gcc/arm-none-eabi/4.8.2/../../../../arm-none-eabi/lib/thumb\libstdc++.a(eh_type.o)
 .text          0x02017e78     0x60e0 c:/nds/devkitpro/devkitarm/bin/../lib/gcc/arm-none-eabi/4.8.2/../../../../arm-none-eabi/lib/thumb\libstdc++.a(cp-demangle.o)
                0x0201de64                __cxa_demangle
                0x0201df2c                __gcclibcxx_demangle_callback
 .text          0x0201df58      0x11c c:/nds/devkitpro/devkitarm/bin/../lib/gcc/arm-none-eabi/4.8.2/thumb\libgcc.a(_udivsi3.o)
                0x0201df58                __aeabi_uidiv
                0x0201df58                __udivsi3
                0x0201e054                __aeabi_uidivmod
 .text          0x0201e074      0x150 c:/nds/devkitpro/devkitarm/bin/../lib/gcc/arm-none-eabi/4.8.2/thumb\libgcc.a(_divsi3.o)
                0x0201e074                __divsi3
                0x0201e074                __aeabi_idiv
                0x0201e1a4                __aeabi_idivmod
 .text          0x0201e1c4        0x4 c:/nds/devkitpro/devkitarm/bin/../lib/gcc/arm-none-eabi/4.8.2/thumb\libgcc.a(_dvmd_tls.o)
                0x0201e1c4                __aeabi_idiv0
                0x0201e1c4                __aeabi_ldiv0
 .text          0x0201e1c8       0x4c c:/nds/devkitpro/devkitarm/bin/../lib/gcc/arm-none-eabi/4.8.2/thumb\libgcc.a(_muldi3.o)
                0x0201e1c8                __muldi3
                0x0201e1c8                __aeabi_lmul
 .text          0x0201e214      0xac4 c:/nds/devkitpro/devkitarm/bin/../lib/gcc/arm-none-eabi/4.8.2/thumb\libgcc.a(unwind-arm.o)
                0x0201e510                _Unwind_GetCFA
                0x0201e514                __gnu_Unwind_RaiseException
                0x0201e56c                __gnu_Unwind_ForcedUnwind
                0x0201e584                __gnu_Unwind_Resume
                0x0201e5cc                __gnu_Unwind_Resume_or_Rethrow
                0x0201e5ec                _Unwind_Complete
                0x0201e5f0                _Unwind_DeleteException
                0x0201e608                _Unwind_VRS_Get
                0x0201e65c                _Unwind_VRS_Set
                0x0201e6b0                __gnu_Unwind_Backtrace
                0x0201ea1c                __aeabi_unwind_cpp_pr0
                0x0201ea2c                __aeabi_unwind_cpp_pr1
                0x0201ea3c                __aeabi_unwind_cpp_pr2
                0x0201ea4c                _Unwind_VRS_Pop
 .text          0x0201ecd8      0x1d8 c:/nds/devkitpro/devkitarm/bin/../lib/gcc/arm-none-eabi/4.8.2/thumb\libgcc.a(libunwind.o)
                0x0201ecd8                __restore_core_regs
                0x0201ecd8                restore_core_regs
                0x0201ecf4                __gnu_Unwind_Restore_VFP
                0x0201ecfc                __gnu_Unwind_Save_VFP
                0x0201ed04                __gnu_Unwind_Restore_VFP_D
                0x0201ed0c                __gnu_Unwind_Save_VFP_D
                0x0201ed14                __gnu_Unwind_Restore_VFP_D_16_to_31
                0x0201ed1c                __gnu_Unwind_Save_VFP_D_16_to_31
                0x0201ed24                __gnu_Unwind_Restore_WMMXD
                0x0201ed68                __gnu_Unwind_Save_WMMXD
                0x0201edac                __gnu_Unwind_Restore_WMMXC
                0x0201edc0                __gnu_Unwind_Save_WMMXC
                0x0201edd4                ___Unwind_RaiseException
                0x0201edd4                _Unwind_RaiseException
                0x0201ee00                _Unwind_Resume
                0x0201ee00                ___Unwind_Resume
                0x0201ee2c                _Unwind_Resume_or_Rethrow
                0x0201ee2c                ___Unwind_Resume_or_Rethrow
                0x0201ee58                _Unwind_ForcedUnwind
                0x0201ee58                ___Unwind_ForcedUnwind
                0x0201ee84                ___Unwind_Backtrace
                0x0201ee84                _Unwind_Backtrace
 .text          0x0201eeb0      0x3c4 c:/nds/devkitpro/devkitarm/bin/../lib/gcc/arm-none-eabi/4.8.2/thumb\libgcc.a(pr-support.o)
                0x0201ef10                __gnu_unwind_execute
                0x0201f210                __gnu_unwind_frame
                0x0201f23c                _Unwind_GetRegionStart
                0x0201f24c                _Unwind_GetLanguageSpecificData
                0x0201f264                _Unwind_GetDataRelBase
                0x0201f26c                _Unwind_GetTextRelBase
 .text          0x0201f274       0x10 c:/nds/devkitpro/devkitarm/bin/../lib/gcc/arm-none-eabi/4.8.2/../../../../arm-none-eabi/lib/thumb\libg.a(lib_a-abort.o)
                0x0201f274                abort
 .text          0x0201f284       0x64 c:/nds/devkitpro/devkitarm/bin/../lib/gcc/arm-none-eabi/4.8.2/../../../../arm-none-eabi/lib/thumb\libg.a(lib_a-bsearch.o)
                0x0201f284                bsearch
 .text          0x0201f2e8       0x1c c:/nds/devkitpro/devkitarm/bin/../lib/gcc/arm-none-eabi/4.8.2/../../../../arm-none-eabi/lib/thumb\libg.a(lib_a-calloc.o)
                0x0201f2e8                calloc
 .text          0x0201f304       0x64 c:/nds/devkitpro/devkitarm/bin/../lib/gcc/arm-none-eabi/4.8.2/../../../../arm-none-eabi/lib/thumb\libg.a(lib_a-callocr.o)
                0x0201f304                _calloc_r
 .text          0x0201f368       0x10 c:/nds/devkitpro/devkitarm/bin/../lib/gcc/arm-none-eabi/4.8.2/../../../../arm-none-eabi/lib/thumb\libg.a(lib_a-ctype_.o)
                0x0201f368                __set_ctype
 .text          0x0201f378       0xb0 c:/nds/devkitpro/devkitarm/bin/../lib/gcc/arm-none-eabi/4.8.2/../../../../arm-none-eabi/lib/thumb\libg.a(lib_a-fclose.o)
                0x0201f378                _fclose_r
                0x0201f40c                fclose
 .text          0x0201f428      0x1bc c:/nds/devkitpro/devkitarm/bin/../lib/gcc/arm-none-eabi/4.8.2/../../../../arm-none-eabi/lib/thumb\libg.a(lib_a-fflush.o)
                0x0201f428                __sflush_r
                0x0201f584                _fflush_r
                0x0201f5b4                fflush
 .text          0x0201f5e4      0x248 c:/nds/devkitpro/devkitarm/bin/../lib/gcc/arm-none-eabi/4.8.2/../../../../arm-none-eabi/lib/thumb\libg.a(lib_a-findfp.o)
                0x0201f5ec                _cleanup_r
                0x0201f600                __sfmoreglue
                0x0201f634                _cleanup
                0x0201f650                __sinit
                0x0201f750                __sfp
                0x0201f7e4                __sfp_lock_acquire
                0x0201f7e8                __sfp_lock_release
                0x0201f7ec                __sinit_lock_acquire
                0x0201f7f0                __sinit_lock_release
                0x0201f7f4                __fp_lock_all
                0x0201f810                __fp_unlock_all
 .text          0x0201f82c       0xa8 c:/nds/devkitpro/devkitarm/bin/../lib/gcc/arm-none-eabi/4.8.2/../../../../arm-none-eabi/lib/thumb\libg.a(lib_a-fopen.o)
                0x0201f82c                _fopen_r
                0x0201f8b8                fopen
 .text          0x0201f8d4       0x58 c:/nds/devkitpro/devkitarm/bin/../lib/gcc/arm-none-eabi/4.8.2/../../../../arm-none-eabi/lib/thumb\libg.a(lib_a-fputc.o)
                0x0201f8d4                _fputc_r
                0x0201f8fc                fputc
 .text          0x0201f92c       0x78 c:/nds/devkitpro/devkitarm/bin/../lib/gcc/arm-none-eabi/4.8.2/../../../../arm-none-eabi/lib/thumb\libg.a(lib_a-fputs.o)
                0x0201f92c                _fputs_r
                0x0201f988                fputs
 .text          0x0201f9a4      0x19c c:/nds/devkitpro/devkitarm/bin/../lib/gcc/arm-none-eabi/4.8.2/../../../../arm-none-eabi/lib/thumb\libg.a(lib_a-fread.o)
                0x0201f9a4                _fread_r
                0x0201fb18                fread
 .text          0x0201fb40      0x238 c:/nds/devkitpro/devkitarm/bin/../lib/gcc/arm-none-eabi/4.8.2/../../../../arm-none-eabi/lib/thumb\libg.a(lib_a-freer.o)
                0x0201fb40                _malloc_trim_r
                0x0201fbe4                _free_r
 .text          0x0201fd78       0x2c c:/nds/devkitpro/devkitarm/bin/../lib/gcc/arm-none-eabi/4.8.2/../../../../arm-none-eabi/lib/thumb\libg.a(lib_a-fseek.o)
                0x0201fd78                _fseek_r
                0x0201fd84                fseek
 .text          0x0201fda4      0x34c c:/nds/devkitpro/devkitarm/bin/../lib/gcc/arm-none-eabi/4.8.2/../../../../arm-none-eabi/lib/thumb\libg.a(lib_a-fseeko.o)
                0x0201fda4                _fseeko_r
                0x020200cc                fseeko
 .text          0x020200f0       0x24 c:/nds/devkitpro/devkitarm/bin/../lib/gcc/arm-none-eabi/4.8.2/../../../../arm-none-eabi/lib/thumb\libg.a(lib_a-ftell.o)
                0x020200f0                _ftell_r
                0x020200fc                ftell
 .text          0x02020114       0x9c c:/nds/devkitpro/devkitarm/bin/../lib/gcc/arm-none-eabi/4.8.2/../../../../arm-none-eabi/lib/thumb\libg.a(lib_a-ftello.o)
                0x02020114                _ftello_r
                0x02020194                ftello
 .text          0x020201b0      0x330 c:/nds/devkitpro/devkitarm/bin/../lib/gcc/arm-none-eabi/4.8.2/../../../../arm-none-eabi/lib/thumb\libg.a(lib_a-fvwrite.o)
                0x020201b0                __sfvwrite_r
 .text          0x020204e0       0xa4 c:/nds/devkitpro/devkitarm/bin/../lib/gcc/arm-none-eabi/4.8.2/../../../../arm-none-eabi/lib/thumb\libg.a(lib_a-fwalk.o)
                0x020204e0                _fwalk
                0x0202052c                _fwalk_reent
 .text          0x02020584       0x9c c:/nds/devkitpro/devkitarm/bin/../lib/gcc/arm-none-eabi/4.8.2/../../../../arm-none-eabi/lib/thumb\libg.a(lib_a-fwrite.o)
                0x02020584                _fwrite_r
                0x020205f8                fwrite
 .text          0x02020620        0x0 c:/nds/devkitpro/devkitarm/bin/../lib/gcc/arm-none-eabi/4.8.2/../../../../arm-none-eabi/lib/thumb\libg.a(lib_a-impure.o)
 .text          0x02020620       0x58 c:/nds/devkitpro/devkitarm/bin/../lib/gcc/arm-none-eabi/4.8.2/../../../../arm-none-eabi/lib/thumb\libg.a(lib_a-init.o)
                0x02020620                __libc_init_array
 .text          0x02020678       0x40 c:/nds/devkitpro/devkitarm/bin/../lib/gcc/arm-none-eabi/4.8.2/../../../../arm-none-eabi/lib/thumb\libg.a(lib_a-iprintf.o)
                0x02020678                iprintf
                0x0202069c                _iprintf_r
 .text          0x020206b8       0x10 c:/nds/devkitpro/devkitarm/bin/../lib/gcc/arm-none-eabi/4.8.2/../../../../arm-none-eabi/lib/thumb\libg.a(lib_a-lcltime_r.o)
                0x020206b8                localtime_r
 .text          0x020206c8      0x934 c:/nds/devkitpro/devkitarm/bin/../lib/gcc/arm-none-eabi/4.8.2/../../../../arm-none-eabi/lib/thumb\libg.a(lib_a-locale.o)
                0x02020d88                _setlocale_r
                0x02020f9c                __locale_charset
                0x02020fa4                __locale_mb_cur_max
                0x02020fb0                __locale_msgcharset
                0x02020fbc                __locale_cjk_lang
                0x02020fc8                _localeconv_r
                0x02020fd4                setlocale
                0x02020ff0                localeconv
 .text          0x02020ffc       0xe4 c:/nds/devkitpro/devkitarm/bin/../lib/gcc/arm-none-eabi/4.8.2/../../../../arm-none-eabi/lib/thumb\libg.a(lib_a-makebuf.o)
                0x02020ffc                __smakebuf_r
 .text          0x020210e0       0x30 c:/nds/devkitpro/devkitarm/bin/../lib/gcc/arm-none-eabi/4.8.2/../../../../arm-none-eabi/lib/thumb\libg.a(lib_a-malloc.o)
                0x020210e0                malloc
                0x020210f8                free
 .text          0x02021110      0x510 c:/nds/devkitpro/devkitarm/bin/../lib/gcc/arm-none-eabi/4.8.2/../../../../arm-none-eabi/lib/thumb\libg.a(lib_a-mallocr.o)
                0x02021110                _malloc_r
 .text          0x02021620       0xf8 c:/nds/devkitpro/devkitarm/bin/../lib/gcc/arm-none-eabi/4.8.2/../../../../arm-none-eabi/lib/thumb\libg.a(lib_a-mbrtowc.o)
                0x02021620                _mbrtowc_r
                0x02021698                mbrtowc
 .text          0x02021718       0x40 c:/nds/devkitpro/devkitarm/bin/../lib/gcc/arm-none-eabi/4.8.2/../../../../arm-none-eabi/lib/thumb\libg.a(lib_a-mbsrtowcs.o)
                0x02021718                _mbsrtowcs_r
                0x02021730                mbsrtowcs
 .text          0x02021758      0x5bc c:/nds/devkitpro/devkitarm/bin/../lib/gcc/arm-none-eabi/4.8.2/../../../../arm-none-eabi/lib/thumb\libg.a(lib_a-mbtowc_r.o)
                0x02021758                __utf8_mbtowc
                0x020219c0                _mbtowc_r
                0x020219fc                __ascii_mbtowc
                0x02021a2c                __sjis_mbtowc
                0x02021ae4                __eucjp_mbtowc
                0x02021bcc                __jis_mbtowc
 .text          0x02021d14       0x8c c:/nds/devkitpro/devkitarm/bin/../lib/gcc/arm-none-eabi/4.8.2/../../../../arm-none-eabi/lib/thumb\libg.a(lib_a-memchr-stub.o)
                0x02021d14                memchr
 .text          0x02021da0       0x50 c:/nds/devkitpro/devkitarm/bin/../lib/gcc/arm-none-eabi/4.8.2/../../../../arm-none-eabi/lib/thumb\libg.a(lib_a-memcmp.o)
                0x02021da0                memcmp
 .text          0x02021df0       0x88 c:/nds/devkitpro/devkitarm/bin/../lib/gcc/arm-none-eabi/4.8.2/../../../../arm-none-eabi/lib/thumb\libg.a(lib_a-memcpy-stub.o)
                0x02021df0                memcpy
 .text          0x02021e78       0xa8 c:/nds/devkitpro/devkitarm/bin/../lib/gcc/arm-none-eabi/4.8.2/../../../../arm-none-eabi/lib/thumb\libg.a(lib_a-memmove.o)
                0x02021e78                memmove
 .text          0x02021f20       0xa4 c:/nds/devkitpro/devkitarm/bin/../lib/gcc/arm-none-eabi/4.8.2/../../../../arm-none-eabi/lib/thumb\libg.a(lib_a-memset.o)
                0x02021f20                memset
 .text          0x02021fc4      0x51c c:/nds/devkitpro/devkitarm/bin/../lib/gcc/arm-none-eabi/4.8.2/../../../../arm-none-eabi/lib/thumb\libg.a(lib_a-mktime.o)
                0x020221a4                mktime
 .text          0x020224e0      0x494 c:/nds/devkitpro/devkitarm/bin/../lib/gcc/arm-none-eabi/4.8.2/../../../../arm-none-eabi/lib/thumb\libg.a(lib_a-mktm_r.o)
                0x020224e0                __tzcalc_limits
                0x0202267c                _mktm_r
 .text          0x02022974        0x8 c:/nds/devkitpro/devkitarm/bin/../lib/gcc/arm-none-eabi/4.8.2/../../../../arm-none-eabi/lib/thumb\libg.a(lib_a-mlock.o)
                0x02022974                __malloc_lock
                0x02022978                __malloc_unlock
 .text          0x0202297c       0xc8 c:/nds/devkitpro/devkitarm/bin/../lib/gcc/arm-none-eabi/4.8.2/../../../../arm-none-eabi/lib/thumb\libg.a(lib_a-putc.o)
                0x0202297c                _putc_r
                0x020229dc                putc
 .text          0x02022a44       0x1c c:/nds/devkitpro/devkitarm/bin/../lib/gcc/arm-none-eabi/4.8.2/../../../../arm-none-eabi/lib/thumb\libg.a(lib_a-realloc.o)
                0x02022a44                realloc
 .text          0x02022a60      0x36c c:/nds/devkitpro/devkitarm/bin/../lib/gcc/arm-none-eabi/4.8.2/../../../../arm-none-eabi/lib/thumb\libg.a(lib_a-reallocr.o)
                0x02022a60                _realloc_r
 .text          0x02022dcc      0x148 c:/nds/devkitpro/devkitarm/bin/../lib/gcc/arm-none-eabi/4.8.2/../../../../arm-none-eabi/lib/thumb\libg.a(lib_a-refill.o)
                0x02022dec                __srefill_r
 .text          0x02022f14       0x40 c:/nds/devkitpro/devkitarm/bin/../lib/gcc/arm-none-eabi/4.8.2/../../../../arm-none-eabi/lib/thumb\libg.a(lib_a-rewind.o)
                0x02022f14                _rewind_r
                0x02022f30                rewind
 .text          0x02022f54      0x110 c:/nds/devkitpro/devkitarm/bin/../lib/gcc/arm-none-eabi/4.8.2/../../../../arm-none-eabi/lib/thumb\libg.a(lib_a-setvbuf.o)
                0x02022f54                setvbuf
 .text          0x02023064      0x198 c:/nds/devkitpro/devkitarm/bin/../lib/gcc/arm-none-eabi/4.8.2/../../../../arm-none-eabi/lib/thumb\libg.a(lib_a-signal.o)
                0x02023064                _init_signal_r
                0x020230a4                _signal_r
                0x020230e4                _raise_r
                0x02023144                __sigtramp_r
                0x02023198                raise
                0x020231b0                signal
                0x020231cc                _init_signal
                0x020231e0                __sigtramp
 .text          0x020231fc       0xa0 c:/nds/devkitpro/devkitarm/bin/../lib/gcc/arm-none-eabi/4.8.2/../../../../arm-none-eabi/lib/thumb\libg.a(lib_a-siscanf.o)
                0x020231fc                siscanf
                0x0202324c                _siscanf_r
 .text          0x0202329c       0x84 c:/nds/devkitpro/devkitarm/bin/../lib/gcc/arm-none-eabi/4.8.2/../../../../arm-none-eabi/lib/thumb\libg.a(lib_a-sprintf.o)
                0x0202329c                _sprintf_r
                0x020232dc                sprintf
 .text          0x02023320       0xac c:/nds/devkitpro/devkitarm/bin/../lib/gcc/arm-none-eabi/4.8.2/../../../../arm-none-eabi/lib/thumb\libg.a(lib_a-stdio.o)
                0x02023320                __sread
                0x0202334c                __seofread
                0x02023350                __swrite
                0x0202338c                __sseek
                0x020233bc                __sclose
 .text          0x020233cc       0x4c c:/nds/devkitpro/devkitarm/bin/../lib/gcc/arm-none-eabi/4.8.2/../../../../arm-none-eabi/lib/thumb\libg.a(lib_a-stpcpy.o)
                0x020233cc                stpcpy
 .text          0x02023418       0x50 c:/nds/devkitpro/devkitarm/bin/../lib/gcc/arm-none-eabi/4.8.2/../../../../arm-none-eabi/lib/thumb\libg.a(lib_a-strcasecmp.o)
                0x02023418                strcasecmp
 .text          0x02023468       0x54 c:/nds/devkitpro/devkitarm/bin/../lib/gcc/arm-none-eabi/4.8.2/../../../../arm-none-eabi/lib/thumb\libg.a(lib_a-strcat.o)
                0x02023468                strcat
 .text          0x020234bc       0xdc c:/nds/devkitpro/devkitarm/bin/../lib/gcc/arm-none-eabi/4.8.2/../../../../arm-none-eabi/lib/thumb\libg.a(lib_a-strchr.o)
                0x020234bc                strchr
 .text          0x02023598       0x14 c:/nds/devkitpro/devkitarm/bin/../lib/gcc/arm-none-eabi/4.8.2/../../../../arm-none-eabi/lib/thumb\libg.a(lib_a-strcmp.o)
                0x02023598                strcmp
 .text          0x020235ac       0x10 c:/nds/devkitpro/devkitarm/bin/../lib/gcc/arm-none-eabi/4.8.2/../../../../arm-none-eabi/lib/thumb\libg.a(lib_a-strcpy.o)
                0x020235ac                strcpy
 .text          0x020235bc       0x18 c:/nds/devkitpro/devkitarm/bin/../lib/gcc/arm-none-eabi/4.8.2/../../../../arm-none-eabi/lib/thumb\libg.a(lib_a-strdup.o)
                0x020235bc                strdup
 .text          0x020235d4       0x2c c:/nds/devkitpro/devkitarm/bin/../lib/gcc/arm-none-eabi/4.8.2/../../../../arm-none-eabi/lib/thumb\libg.a(lib_a-strdup_r.o)
                0x020235d4                _strdup_r
 .text          0x02023600       0x50 c:/nds/devkitpro/devkitarm/bin/../lib/gcc/arm-none-eabi/4.8.2/../../../../arm-none-eabi/lib/thumb\libg.a(lib_a-strlcpy.o)
                0x02023600                strlcpy
 .text          0x02023650       0x10 c:/nds/devkitpro/devkitarm/bin/../lib/gcc/arm-none-eabi/4.8.2/../../../../arm-none-eabi/lib/thumb\libg.a(lib_a-strlen.o)
                0x02023650                strlen
 .text          0x02023660       0x60 c:/nds/devkitpro/devkitarm/bin/../lib/gcc/arm-none-eabi/4.8.2/../../../../arm-none-eabi/lib/thumb\libg.a(lib_a-strncasecmp.o)
                0x02023660                strncasecmp
 .text          0x020236c0       0xbc c:/nds/devkitpro/devkitarm/bin/../lib/gcc/arm-none-eabi/4.8.2/../../../../arm-none-eabi/lib/thumb\libg.a(lib_a-strncmp.o)
                0x020236c0                strncmp
 .text          0x0202377c       0x78 c:/nds/devkitpro/devkitarm/bin/../lib/gcc/arm-none-eabi/4.8.2/../../../../arm-none-eabi/lib/thumb\libg.a(lib_a-strncpy.o)
                0x0202377c                strncpy
 .text          0x020237f4       0x34 c:/nds/devkitpro/devkitarm/bin/../lib/gcc/arm-none-eabi/4.8.2/../../../../arm-none-eabi/lib/thumb\libg.a(lib_a-strnlen.o)
                0x020237f4                strnlen
 .text          0x02023828       0x58 c:/nds/devkitpro/devkitarm/bin/../lib/gcc/arm-none-eabi/4.8.2/../../../../arm-none-eabi/lib/thumb\libg.a(lib_a-strpbrk.o)
                0x02023828                strpbrk
 .text          0x02023880       0x2c c:/nds/devkitpro/devkitarm/bin/../lib/gcc/arm-none-eabi/4.8.2/../../../../arm-none-eabi/lib/thumb\libg.a(lib_a-strrchr.o)
                0x02023880                strrchr
 .text          0x020238ac      0x190 c:/nds/devkitpro/devkitarm/bin/../lib/gcc/arm-none-eabi/4.8.2/../../../../arm-none-eabi/lib/thumb\libg.a(lib_a-strtol.o)
                0x020238ac                _strtol_r
                0x02023a1c                strtol
 .text          0x02023a3c      0xadc c:/nds/devkitpro/devkitarm/bin/../lib/gcc/arm-none-eabi/4.8.2/../../../../arm-none-eabi/lib/thumb\libg.a(lib_a-svfiscanf.o)
                0x02023a3c                _sungetc_r
                0x02023ac4                __ssrefill_r
                0x02023b08                _sfread_r
                0x02023b90                __ssvfiscanf_r
 .text          0x02024518     0x17a8 c:/nds/devkitpro/devkitarm/bin/../lib/gcc/arm-none-eabi/4.8.2/../../../../arm-none-eabi/lib/thumb\libg.a(lib_a-svfprintf.o)
                0x02024518                _svfprintf_r
 .text          0x02025cc0       0x18 c:/nds/devkitpro/devkitarm/bin/../lib/gcc/arm-none-eabi/4.8.2/../../../../arm-none-eabi/lib/thumb\libg.a(lib_a-sysclose.o)
                0x02025cc0                close
 .text          0x02025cd8       0x20 c:/nds/devkitpro/devkitarm/bin/../lib/gcc/arm-none-eabi/4.8.2/../../../../arm-none-eabi/lib/thumb\libg.a(lib_a-syslseek.o)
                0x02025cd8                lseek
 .text          0x02025cf8       0x24 c:/nds/devkitpro/devkitarm/bin/../lib/gcc/arm-none-eabi/4.8.2/../../../../arm-none-eabi/lib/thumb\libg.a(lib_a-sysopen.o)
                0x02025cf8                open
 .text          0x02025d1c       0x20 c:/nds/devkitpro/devkitarm/bin/../lib/gcc/arm-none-eabi/4.8.2/../../../../arm-none-eabi/lib/thumb\libg.a(lib_a-sysread.o)
                0x02025d1c                read
 .text          0x02025d3c       0x20 c:/nds/devkitpro/devkitarm/bin/../lib/gcc/arm-none-eabi/4.8.2/../../../../arm-none-eabi/lib/thumb\libg.a(lib_a-syswrite.o)
                0x02025d3c                write
 .text          0x02025d5c       0x30 c:/nds/devkitpro/devkitarm/bin/../lib/gcc/arm-none-eabi/4.8.2/../../../../arm-none-eabi/lib/thumb\libg.a(lib_a-time.o)
                0x02025d5c                time
 .text          0x02025d8c      0x7a4 c:/nds/devkitpro/devkitarm/bin/../lib/gcc/arm-none-eabi/4.8.2/../../../../arm-none-eabi/lib/thumb\libg.a(lib_a-towlower.o)
                0x02025d8c                towlower
 .text          0x02026530      0x9ac c:/nds/devkitpro/devkitarm/bin/../lib/gcc/arm-none-eabi/4.8.2/../../../../arm-none-eabi/lib/thumb\libg.a(lib_a-towupper.o)
                0x02026530                towupper
 .text          0x02026edc        0x8 c:/nds/devkitpro/devkitarm/bin/../lib/gcc/arm-none-eabi/4.8.2/../../../../arm-none-eabi/lib/thumb\libg.a(lib_a-tzlock.o)
                0x02026edc                __tz_lock
                0x02026ee0                __tz_unlock
 .text          0x02026ee4        0x0 c:/nds/devkitpro/devkitarm/bin/../lib/gcc/arm-none-eabi/4.8.2/../../../../arm-none-eabi/lib/thumb\libg.a(lib_a-tzvars.o)
 .text          0x02026ee4      0x184 c:/nds/devkitpro/devkitarm/bin/../lib/gcc/arm-none-eabi/4.8.2/../../../../arm-none-eabi/lib/thumb\libg.a(lib_a-ungetc.o)
                0x02026ee4                __submore
                0x02026f6c                _ungetc_r
                0x0202704c                ungetc
 .text          0x02027068      0xe60 c:/nds/devkitpro/devkitarm/bin/../lib/gcc/arm-none-eabi/4.8.2/../../../../arm-none-eabi/lib/thumb\libg.a(lib_a-vfiprintf.o)
                0x020270e8                __sprint_r
                0x02027100                _vfiprintf_r
                0x02027e2c                vfiprintf
 .text          0x02027ec8       0xd8 c:/nds/devkitpro/devkitarm/bin/../lib/gcc/arm-none-eabi/4.8.2/../../../../arm-none-eabi/lib/thumb\libg.a(lib_a-wbuf.o)
                0x02027ec8                __swbuf_r
                0x02027f84                __swbuf
 .text          0x02027fa0       0xdc c:/nds/devkitpro/devkitarm/bin/../lib/gcc/arm-none-eabi/4.8.2/../../../../arm-none-eabi/lib/thumb\libg.a(lib_a-wcrtomb.o)
                0x02027fa0                _wcrtomb_r
                0x02028008                wcrtomb
 .text          0x0202807c       0x40 c:/nds/devkitpro/devkitarm/bin/../lib/gcc/arm-none-eabi/4.8.2/../../../../arm-none-eabi/lib/thumb\libg.a(lib_a-wcsrtombs.o)
                0x0202807c                _wcsrtombs_r
                0x02028094                wcsrtombs
 .text          0x020280bc       0x54 c:/nds/devkitpro/devkitarm/bin/../lib/gcc/arm-none-eabi/4.8.2/../../../../arm-none-eabi/lib/thumb\libg.a(lib_a-wctob.o)
                0x020280bc                wctob
 .text          0x02028110      0x28c c:/nds/devkitpro/devkitarm/bin/../lib/gcc/arm-none-eabi/4.8.2/../../../../arm-none-eabi/lib/thumb\libg.a(lib_a-wctomb_r.o)
                0x02028110                __utf8_wctomb
                0x020281d0                _wctomb_r
                0x02028208                __ascii_wctomb
                0x02028228                __sjis_wctomb
                0x0202829c                __eucjp_wctomb
                0x0202831c                __jis_wctomb
 .text          0x0202839c       0xd0 c:/nds/devkitpro/devkitarm/bin/../lib/gcc/arm-none-eabi/4.8.2/../../../../arm-none-eabi/lib/thumb\libg.a(lib_a-wsetup.o)
                0x0202839c                __swsetup_r
 .text          0x0202846c       0x40 c:/nds/devkitpro/devkitarm/bin/../lib/gcc/arm-none-eabi/4.8.2/../../../../arm-none-eabi/lib/thumb\libg.a(lib_a-div.o)
                0x0202846c                div
 *fill*         0x020284ac        0x4 ff
 .text          0x020284b0     0x1140 c:/nds/devkitpro/devkitarm/bin/../lib/gcc/arm-none-eabi/4.8.2/../../../../arm-none-eabi/lib/thumb\libg.a(lib_a-dtoa.o)
                0x02028604                _dtoa_r
 .text          0x020295f0       0xa4 c:/nds/devkitpro/devkitarm/bin/../lib/gcc/arm-none-eabi/4.8.2/../../../../arm-none-eabi/lib/thumb\libg.a(lib_a-flags.o)
                0x020295f0                __sflags
 .text          0x02029694      0x104 c:/nds/devkitpro/devkitarm/bin/../lib/gcc/arm-none-eabi/4.8.2/../../../../arm-none-eabi/lib/thumb\libg.a(lib_a-fputwc.o)
                0x02029694                _fputwc_r
                0x02029768                fputwc
 .text          0x02029798       0xa8 c:/nds/devkitpro/devkitarm/bin/../lib/gcc/arm-none-eabi/4.8.2/../../../../arm-none-eabi/lib/thumb\libg.a(lib_a-getenv_r.o)
                0x02029798                _findenv_r
                0x02029830                _getenv_r
 .text          0x02029840        0x8 c:/nds/devkitpro/devkitarm/bin/../lib/gcc/arm-none-eabi/4.8.2/../../../../arm-none-eabi/lib/thumb\libg.a(lib_a-gettzinfo.o)
                0x02029840                __gettzinfo
 .text          0x02029848       0x78 c:/nds/devkitpro/devkitarm/bin/../lib/gcc/arm-none-eabi/4.8.2/../../../../arm-none-eabi/lib/thumb\libg.a(lib_a-iswspace.o)
                0x02029848                iswspace
 .text          0x020298c0      0x1e8 c:/nds/devkitpro/devkitarm/bin/../lib/gcc/arm-none-eabi/4.8.2/../../../../arm-none-eabi/lib/thumb\libg.a(lib_a-jp2uc.o)
                0x02029a44                _jp2uc
 .text          0x02029aa8       0xf0 c:/nds/devkitpro/devkitarm/bin/../lib/gcc/arm-none-eabi/4.8.2/../../../../arm-none-eabi/lib/thumb\libg.a(lib_a-mbsnrtowcs.o)
                0x02029aa8                _mbsnrtowcs_r
                0x02029b6c                mbsnrtowcs
 .text          0x02029b98      0x968 c:/nds/devkitpro/devkitarm/bin/../lib/gcc/arm-none-eabi/4.8.2/../../../../arm-none-eabi/lib/thumb\libg.a(lib_a-mprec.o)
                0x02029b98                _Balloc
                0x02029bec                _Bfree
                0x02029c04                __multadd
                0x02029cb0                __s2b
                0x02029d4c                __hi0bits
                0x02029d8c                __lo0bits
                0x02029dec                __i2b
                0x02029e04                __multiply
                0x02029f4c                __pow5mult
                0x0202a008                __lshift
                0x0202a0cc                __mcmp
                0x0202a108                __mdiff
                0x0202a1f8                __ulp
                0x0202a240                __b2d
                0x0202a2f0                __d2b
                0x0202a3b0                __ratio
                0x0202a424                _mprec_log10
                0x0202a464                __copybits
                0x0202a4a8                __any_on
 .text          0x0202a500       0x7c c:/nds/devkitpro/devkitarm/bin/../lib/gcc/arm-none-eabi/4.8.2/../../../../arm-none-eabi/lib/thumb\libg.a(lib_a-sccl.o)
                0x0202a500                __sccl
 .text          0x0202a57c       0x5c c:/nds/devkitpro/devkitarm/bin/../lib/gcc/arm-none-eabi/4.8.2/../../../../arm-none-eabi/lib/thumb\libg.a(lib_a-s_fpclassify.o)
                0x0202a57c                __fpclassifyd
 .text          0x0202a5d8      0x228 c:/nds/devkitpro/devkitarm/bin/../lib/gcc/arm-none-eabi/4.8.2/../../../../arm-none-eabi/lib/thumb\libg.a(lib_a-strtoll_r.o)
                0x0202a5d8                _strtoll_r
 .text          0x0202a800      0x1fc c:/nds/devkitpro/devkitarm/bin/../lib/gcc/arm-none-eabi/4.8.2/../../../../arm-none-eabi/lib/thumb\libg.a(lib_a-strtoull_r.o)
                0x0202a800                _strtoull_r
 .text          0x0202a9fc      0x1ac c:/nds/devkitpro/devkitarm/bin/../lib/gcc/arm-none-eabi/4.8.2/../../../../arm-none-eabi/lib/thumb\libg.a(lib_a-strtoul.o)
                0x0202a9fc                _strtoul_r
                0x0202ab88                strtoul
 .text          0x0202aba8      0xd98 c:/nds/devkitpro/devkitarm/bin/../lib/gcc/arm-none-eabi/4.8.2/../../../../arm-none-eabi/lib/thumb\libg.a(lib_a-svfiprintf.o)
                0x0202aba8                __ssprint_r
                0x0202acd8                _svfiprintf_r
 .text          0x0202b940      0x13c c:/nds/devkitpro/devkitarm/bin/../lib/gcc/arm-none-eabi/4.8.2/../../../../arm-none-eabi/lib/thumb\libg.a(lib_a-wcsnrtombs.o)
                0x0202b940                _wcsnrtombs_r
                0x0202ba4c                wcsnrtombs
 .text          0x0202ba7c        0x0 c:/nds/devkitpro/devkitarm/bin/../lib/gcc/arm-none-eabi/4.8.2/../../../../arm-none-eabi/lib/thumb\libg.a(lib_a-environ.o)
 .text          0x0202ba7c        0x8 c:/nds/devkitpro/devkitarm/bin/../lib/gcc/arm-none-eabi/4.8.2/../../../../arm-none-eabi/lib/thumb\libg.a(lib_a-envlock.o)
                0x0202ba7c                __env_lock
                0x0202ba80                __env_unlock
 .text          0x0202ba84      0x144 c:/nds/devkitpro/devkitarm/bin/../lib/gcc/arm-none-eabi/4.8.2/../../../../arm-none-eabi/lib/thumb\libsysbase.a(iosupport.o)
                0x0202ba84                setDefaultDevice
                0x0202ba98                FindDevice
                0x0202bb08                RemoveDevice
                0x0202bb2c                AddDevice
                0x0202bba8                GetDeviceOpTab
 .text          0x0202bbc8       0x50 c:/nds/devkitpro/devkitarm/bin/../lib/gcc/arm-none-eabi/4.8.2/../../../../arm-none-eabi/lib/thumb\libsysbase.a(close.o)
                0x0202bbc8                _close_r
 .text          0x0202bc18       0x50 c:/nds/devkitpro/devkitarm/bin/../lib/gcc/arm-none-eabi/4.8.2/../../../../arm-none-eabi/lib/thumb\libsysbase.a(fstat.o)
                0x0202bc18                _fstat_r
 .text          0x0202bc68        0xc c:/nds/devkitpro/devkitarm/bin/../lib/gcc/arm-none-eabi/4.8.2/../../../../arm-none-eabi/lib/thumb\libsysbase.a(getpid.o)
                0x0202bc68                _getpid_r
 .text          0x0202bc74        0x4 c:/nds/devkitpro/devkitarm/bin/../lib/gcc/arm-none-eabi/4.8.2/../../../../arm-none-eabi/lib/thumb\libsysbase.a(isatty.o)
                0x0202bc74                _isatty_r
 .text          0x0202bc78        0xc c:/nds/devkitpro/devkitarm/bin/../lib/gcc/arm-none-eabi/4.8.2/../../../../arm-none-eabi/lib/thumb\libsysbase.a(kill.o)
                0x0202bc78                _kill_r
 .text          0x0202bc84       0x50 c:/nds/devkitpro/devkitarm/bin/../lib/gcc/arm-none-eabi/4.8.2/../../../../arm-none-eabi/lib/thumb\libsysbase.a(lseek.o)
                0x0202bc84                _lseek_r
 .text          0x0202bcd4       0xa0 c:/nds/devkitpro/devkitarm/bin/../lib/gcc/arm-none-eabi/4.8.2/../../../../arm-none-eabi/lib/thumb\libsysbase.a(open.o)
                0x0202bcd4                _open_r
 .text          0x0202bd74       0x50 c:/nds/devkitpro/devkitarm/bin/../lib/gcc/arm-none-eabi/4.8.2/../../../../arm-none-eabi/lib/thumb\libsysbase.a(read.o)
                0x0202bd74                _read_r
 .text          0x0202bdc4       0x54 c:/nds/devkitpro/devkitarm/bin/../lib/gcc/arm-none-eabi/4.8.2/../../../../arm-none-eabi/lib/thumb\libsysbase.a(sbrk.o)
                0x0202bdc4                _sbrk_r
 .text          0x0202be18       0x44 c:/nds/devkitpro/devkitarm/bin/../lib/gcc/arm-none-eabi/4.8.2/../../../../arm-none-eabi/lib/thumb\libsysbase.a(times.o)
                0x0202be18                _times
                0x0202be2c                _times_r
                0x0202be34                _gettimeofday_r
 .text          0x0202be5c       0x58 c:/nds/devkitpro/devkitarm/bin/../lib/gcc/arm-none-eabi/4.8.2/../../../../arm-none-eabi/lib/thumb\libsysbase.a(write.o)
                0x0202be5c                _write_r
 .text          0x0202beb4       0x18 c:/nds/devkitpro/devkitarm/bin/../lib/gcc/arm-none-eabi/4.8.2/../../../../arm-none-eabi/lib/thumb\libsysbase.a(_exit.o)
                0x0202beb4                _exit
 .text          0x0202becc        0x0 c:/nds/devkitpro/devkitarm/bin/../lib/gcc/arm-none-eabi/4.8.2/../../../../arm-none-eabi/lib/thumb\libsysbase.a(malloc_vars.o)
 .text          0x0202becc      0x25c c:/nds/devkitpro/devkitarm/bin/../lib/gcc/arm-none-eabi/4.8.2/../../../../arm-none-eabi/lib/thumb\libsysbase.a(chdir.o)
                0x0202becc                _concatenate_path
                0x0202bffc                chdir
                0x0202c0dc                getcwd
 .text          0x0202c128       0x50 c:/nds/devkitpro/devkitarm/bin/../lib/gcc/arm-none-eabi/4.8.2/../../../../arm-none-eabi/lib/thumb\libsysbase.a(build_argv.o)
                0x0202c128                build_argv
 .text          0x0202c178        0x0 c:/nds/devkitpro/devkitarm/bin/../lib/gcc/arm-none-eabi/4.8.2/../../../../arm-none-eabi/lib/thumb\libsysbase.a(syscall_support.o)
 .text          0x0202c178       0x88 c:/nds/devkitpro/devkitarm/bin/../lib/gcc/arm-none-eabi/4.8.2/../../../../arm-none-eabi/lib/thumb\libsysbase.a(handle_manager.o)
                0x0202c178                __release_handle
                0x0202c1a4                __alloc_handle
                0x0202c1e0                __get_handle
 .text          0x0202c200      0x41c c:/nds/devkitpro/devkitarm/bin/../lib/gcc/arm-none-eabi/4.8.2/thumb\libgcc.a(_arm_addsubdf3.o)
                0x0202c200                __aeabi_drsub
                0x0202c208                __aeabi_dsub
                0x0202c208                __subdf3
                0x0202c20c                __aeabi_dadd
                0x0202c20c                __adddf3
                0x0202c51c                __floatunsidf
                0x0202c51c                __aeabi_ui2d
                0x0202c540                __floatsidf
                0x0202c540                __aeabi_i2d
                0x0202c568                __aeabi_f2d
                0x0202c568                __extendsfdf2
                0x0202c5a8                __floatundidf
                0x0202c5a8                __aeabi_ul2d
                0x0202c5bc                __floatdidf
                0x0202c5bc                __aeabi_l2d
 .text          0x0202c61c      0x49c c:/nds/devkitpro/devkitarm/bin/../lib/gcc/arm-none-eabi/4.8.2/thumb\libgcc.a(_arm_muldivdf3.o)
                0x0202c61c                __aeabi_dmul
                0x0202c61c                __muldf3
                0x0202c8ac                __divdf3
                0x0202c8ac                __aeabi_ddiv
 .text          0x0202cab8      0x144 c:/nds/devkitpro/devkitarm/bin/../lib/gcc/arm-none-eabi/4.8.2/thumb\libgcc.a(_arm_cmpdf2.o)
                0x0202cab8                __gtdf2
                0x0202cab8                __gedf2
                0x0202cac0                __ltdf2
                0x0202cac0                __ledf2
                0x0202cac8                __nedf2
                0x0202cac8                __eqdf2
                0x0202cac8                __cmpdf2
                0x0202cb50                __aeabi_cdrcmple
                0x0202cb6c                __aeabi_cdcmpeq
                0x0202cb6c                __aeabi_cdcmple
                0x0202cb84                __aeabi_dcmpeq
                0x0202cb9c                __aeabi_dcmplt
                0x0202cbb4                __aeabi_dcmple
                0x0202cbcc                __aeabi_dcmpge
                0x0202cbe4                __aeabi_dcmpgt
 .text          0x0202cbfc       0x5c c:/nds/devkitpro/devkitarm/bin/../lib/gcc/arm-none-eabi/4.8.2/thumb\libgcc.a(_arm_fixdfsi.o)
                0x0202cbfc                __aeabi_d2iz
                0x0202cbfc                __fixdfsi
 .text          0x0202cc58       0x3c c:/nds/devkitpro/devkitarm/bin/../lib/gcc/arm-none-eabi/4.8.2/thumb\libgcc.a(_aeabi_uldivmod.o)
                0x0202cc58                __aeabi_uldivmod
 .text          0x0202cc94       0x74 c:/nds/devkitpro/devkitarm/bin/../lib/gcc/arm-none-eabi/4.8.2/thumb\libgcc.a(bpabi.o)
                0x0202cc94                __gnu_ldivmod_helper
                0x0202ccd0                __gnu_uldivmod_helper
 .text          0x0202cd08      0x3cc c:/nds/devkitpro/devkitarm/bin/../lib/gcc/arm-none-eabi/4.8.2/thumb\libgcc.a(_divdi3.o)
                0x0202cd08                __divdi3
 .text          0x0202d0d4      0x378 c:/nds/devkitpro/devkitarm/bin/../lib/gcc/arm-none-eabi/4.8.2/thumb\libgcc.a(_udivdi3.o)
                0x0202d0d4                __udivdi3
 .text          0x0202d44c       0x48 c:/nds/devkitpro/devkitarm/bin/../lib/gcc/arm-none-eabi/4.8.2/thumb\libgcc.a(_clzsi2.o)
                0x0202d44c                __clzsi2
 .text          0x0202d494        0xc c:/nds/devkitpro/devkitarm/bin/../lib/gcc/arm-none-eabi/4.8.2/../../../../arm-none-eabi/lib/thumb\libg.a(lib_a-errno.o)
                0x0202d494                __errno
 .text          0x0202d4a0        0x0 c:/nds/devkitpro/devkitarm/bin/../lib/gcc/arm-none-eabi/4.8.2/thumb/crtend.o
 .text          0x0202d4a0        0x0 c:/nds/devkitpro/devkitarm/bin/../lib/gcc/arm-none-eabi/4.8.2/thumb/crtn.o
 *(.text.*)
 .text.startup  0x0202d4a0       0x30 main.o
                0x0202d4a0                main
 .text._Znwj    0x0202d4d0       0x60 c:/nds/devkitpro/devkitarm/bin/../lib/gcc/arm-none-eabi/4.8.2/../../../../arm-none-eabi/lib/thumb\libstdc++.a(new_op.o)
                0x0202d4d0                operator new(unsigned int)
 .text._ZN10__cxxabiv1L24__is_gxx_exception_classEPc
                0x0202d530       0x40 c:/nds/devkitpro/devkitarm/bin/../lib/gcc/arm-none-eabi/4.8.2/../../../../arm-none-eabi/lib/thumb\libstdc++.a(eh_call.o)
 .text.__cxa_call_terminate
                0x0202d570       0x20 c:/nds/devkitpro/devkitarm/bin/../lib/gcc/arm-none-eabi/4.8.2/../../../../arm-none-eabi/lib/thumb\libstdc++.a(eh_call.o)
                0x0202d570                __cxa_call_terminate
 .text.__cxa_call_unexpected
                0x0202d590       0xfc c:/nds/devkitpro/devkitarm/bin/../lib/gcc/arm-none-eabi/4.8.2/../../../../arm-none-eabi/lib/thumb\libstdc++.a(eh_call.o)
                0x0202d590                __cxa_call_unexpected
 .text._ZL12read_sleb128PKhPl
                0x0202d68c       0x34 c:/nds/devkitpro/devkitarm/bin/../lib/gcc/arm-none-eabi/4.8.2/../../../../arm-none-eabi/lib/thumb\libstdc++.a(eh_personality.o)
 .text._ZL28read_encoded_value_with_basehjPKhPj
                0x0202d6c0       0xe0 c:/nds/devkitpro/devkitarm/bin/../lib/gcc/arm-none-eabi/4.8.2/../../../../arm-none-eabi/lib/thumb\libstdc++.a(eh_personality.o)
 .text._ZL21base_of_encoded_valuehP15_Unwind_Context
                0x0202d7a0       0x48 c:/nds/devkitpro/devkitarm/bin/../lib/gcc/arm-none-eabi/4.8.2/../../../../arm-none-eabi/lib/thumb\libstdc++.a(eh_personality.o)
 .text._ZL17parse_lsda_headerP15_Unwind_ContextPKhP16lsda_header_info
                0x0202d7e8       0x9c c:/nds/devkitpro/devkitarm/bin/../lib/gcc/arm-none-eabi/4.8.2/../../../../arm-none-eabi/lib/thumb\libstdc++.a(eh_personality.o)
 .text.__gxx_personality_v0
                0x0202d884      0x3f8 c:/nds/devkitpro/devkitarm/bin/../lib/gcc/arm-none-eabi/4.8.2/../../../../arm-none-eabi/lib/thumb\libstdc++.a(eh_personality.o)
                0x0202d884                __gxx_personality_v0
 .text._ZN10__cxxabiv111__terminateEPFvvE
                0x0202dc7c       0x2c c:/nds/devkitpro/devkitarm/bin/../lib/gcc/arm-none-eabi/4.8.2/../../../../arm-none-eabi/lib/thumb\libstdc++.a(eh_terminate.o)
                0x0202dc7c                __cxxabiv1::__terminate(void (*)())
 .text._ZSt9terminatev
                0x0202dca8       0x10 c:/nds/devkitpro/devkitarm/bin/../lib/gcc/arm-none-eabi/4.8.2/../../../../arm-none-eabi/lib/thumb\libstdc++.a(eh_terminate.o)
                0x0202dca8                std::terminate()
 .text._ZN10__cxxabiv112__unexpectedEPFvvE
                0x0202dcb8        0xc c:/nds/devkitpro/devkitarm/bin/../lib/gcc/arm-none-eabi/4.8.2/../../../../arm-none-eabi/lib/thumb\libstdc++.a(eh_terminate.o)
                0x0202dcb8                __cxxabiv1::__unexpected(void (*)())
 .text._ZSt10unexpectedv
                0x0202dcc4       0x10 c:/nds/devkitpro/devkitarm/bin/../lib/gcc/arm-none-eabi/4.8.2/../../../../arm-none-eabi/lib/thumb\libstdc++.a(eh_terminate.o)
                0x0202dcc4                std::unexpected()
 .text._ZSt13set_terminatePFvvE
                0x0202dcd4       0x10 c:/nds/devkitpro/devkitarm/bin/../lib/gcc/arm-none-eabi/4.8.2/../../../../arm-none-eabi/lib/thumb\libstdc++.a(eh_terminate.o)
                0x0202dcd4                std::set_terminate(void (*)())
 .text._ZSt14set_unexpectedPFvvE
                0x0202dce4       0x10 c:/nds/devkitpro/devkitarm/bin/../lib/gcc/arm-none-eabi/4.8.2/../../../../arm-none-eabi/lib/thumb\libstdc++.a(eh_terminate.o)
                0x0202dce4                std::set_unexpected(void (*)())
 .text._ZNSt9exceptionD2Ev
                0x0202dcf4        0xc c:/nds/devkitpro/devkitarm/bin/../lib/gcc/arm-none-eabi/4.8.2/../../../../arm-none-eabi/lib/thumb\libstdc++.a(eh_exception.o)
                0x0202dcf4                std::exception::~exception()
                0x0202dcf4                std::exception::~exception()
 .text._ZNSt13bad_exceptionD2Ev
                0x0202dd00        0xc c:/nds/devkitpro/devkitarm/bin/../lib/gcc/arm-none-eabi/4.8.2/../../../../arm-none-eabi/lib/thumb\libstdc++.a(eh_exception.o)
                0x0202dd00                std::bad_exception::~bad_exception()
                0x0202dd00                std::bad_exception::~bad_exception()
 .text._ZN10__cxxabiv115__forced_unwindD2Ev
                0x0202dd0c        0xc c:/nds/devkitpro/devkitarm/bin/../lib/gcc/arm-none-eabi/4.8.2/../../../../arm-none-eabi/lib/thumb\libstdc++.a(eh_exception.o)
                0x0202dd0c                __cxxabiv1::__forced_unwind::~__forced_unwind()
                0x0202dd0c                __cxxabiv1::__forced_unwind::~__forced_unwind()
 .text._ZN10__cxxabiv119__foreign_exceptionD2Ev
                0x0202dd18        0xc c:/nds/devkitpro/devkitarm/bin/../lib/gcc/arm-none-eabi/4.8.2/../../../../arm-none-eabi/lib/thumb\libstdc++.a(eh_exception.o)
                0x0202dd18                __cxxabiv1::__foreign_exception::~__foreign_exception()
                0x0202dd18                __cxxabiv1::__foreign_exception::~__foreign_exception()
 .text._ZNKSt9exception4whatEv
                0x0202dd24        0x8 c:/nds/devkitpro/devkitarm/bin/../lib/gcc/arm-none-eabi/4.8.2/../../../../arm-none-eabi/lib/thumb\libstdc++.a(eh_exception.o)
                0x0202dd24                std::exception::what() const
 .text._ZNKSt13bad_exception4whatEv
                0x0202dd2c        0x8 c:/nds/devkitpro/devkitarm/bin/../lib/gcc/arm-none-eabi/4.8.2/../../../../arm-none-eabi/lib/thumb\libstdc++.a(eh_exception.o)
                0x0202dd2c                std::bad_exception::what() const
 .text._ZNSt9exceptionD0Ev
                0x0202dd34       0x1c c:/nds/devkitpro/devkitarm/bin/../lib/gcc/arm-none-eabi/4.8.2/../../../../arm-none-eabi/lib/thumb\libstdc++.a(eh_exception.o)
                0x0202dd34                std::exception::~exception()
 .text._ZNSt13bad_exceptionD0Ev
                0x0202dd50       0x1c c:/nds/devkitpro/devkitarm/bin/../lib/gcc/arm-none-eabi/4.8.2/../../../../arm-none-eabi/lib/thumb\libstdc++.a(eh_exception.o)
                0x0202dd50                std::bad_exception::~bad_exception()
 .text._ZN10__cxxabiv115__forced_unwindD0Ev
                0x0202dd6c       0x1c c:/nds/devkitpro/devkitarm/bin/../lib/gcc/arm-none-eabi/4.8.2/../../../../arm-none-eabi/lib/thumb\libstdc++.a(eh_exception.o)
                0x0202dd6c                __cxxabiv1::__forced_unwind::~__forced_unwind()
 .text._ZN10__cxxabiv119__foreign_exceptionD0Ev
                0x0202dd88       0x1c c:/nds/devkitpro/devkitarm/bin/../lib/gcc/arm-none-eabi/4.8.2/../../../../arm-none-eabi/lib/thumb\libstdc++.a(eh_exception.o)
                0x0202dd88                __cxxabiv1::__foreign_exception::~__foreign_exception()
 .text.__cxa_allocate_exception
                0x0202dda4       0x68 c:/nds/devkitpro/devkitarm/bin/../lib/gcc/arm-none-eabi/4.8.2/../../../../arm-none-eabi/lib/thumb\libstdc++.a(eh_alloc.o)
                0x0202dda4                __cxa_allocate_exception
 .text.__cxa_free_exception
                0x0202de0c       0x38 c:/nds/devkitpro/devkitarm/bin/../lib/gcc/arm-none-eabi/4.8.2/../../../../arm-none-eabi/lib/thumb\libstdc++.a(eh_alloc.o)
                0x0202de0c                __cxa_free_exception
 .text.__cxa_allocate_dependent_exception
                0x0202de44       0x60 c:/nds/devkitpro/devkitarm/bin/../lib/gcc/arm-none-eabi/4.8.2/../../../../arm-none-eabi/lib/thumb\libstdc++.a(eh_alloc.o)
                0x0202de44                __cxa_allocate_dependent_exception
 .text.__cxa_free_dependent_exception
                0x0202dea4       0x3c c:/nds/devkitpro/devkitarm/bin/../lib/gcc/arm-none-eabi/4.8.2/../../../../arm-none-eabi/lib/thumb\libstdc++.a(eh_alloc.o)
                0x0202dea4                __cxa_free_dependent_exception
 .text._ZNKSt9bad_alloc4whatEv
                0x0202dee0        0x8 c:/nds/devkitpro/devkitarm/bin/../lib/gcc/arm-none-eabi/4.8.2/../../../../arm-none-eabi/lib/thumb\libstdc++.a(bad_alloc.o)
                0x0202dee0                std::bad_alloc::what() const
 .text._ZNSt9bad_allocD2Ev
                0x0202dee8       0x1c c:/nds/devkitpro/devkitarm/bin/../lib/gcc/arm-none-eabi/4.8.2/../../../../arm-none-eabi/lib/thumb\libstdc++.a(bad_alloc.o)
                0x0202dee8                std::bad_alloc::~bad_alloc()
                0x0202dee8                std::bad_alloc::~bad_alloc()
 .text._ZNSt9bad_allocD0Ev
                0x0202df04       0x20 c:/nds/devkitpro/devkitarm/bin/../lib/gcc/arm-none-eabi/4.8.2/../../../../arm-none-eabi/lib/thumb\libstdc++.a(bad_alloc.o)
                0x0202df04                std::bad_alloc::~bad_alloc()
 .text._ZNK10__cxxabiv117__class_type_info11__do_upcastEPKS0_PPv
                0x0202df24       0x40 c:/nds/devkitpro/devkitarm/bin/../lib/gcc/arm-none-eabi/4.8.2/../../../../arm-none-eabi/lib/thumb\libstdc++.a(class_type_info.o)
                0x0202df24                __cxxabiv1::__class_type_info::__do_upcast(__cxxabiv1::__class_type_info const*, void**) const
 .text._ZNK10__cxxabiv117__class_type_info20__do_find_public_srcEiPKvPKS0_S2_
                0x0202df64       0x14 c:/nds/devkitpro/devkitarm/bin/../lib/gcc/arm-none-eabi/4.8.2/../../../../arm-none-eabi/lib/thumb\libstdc++.a(class_type_info.o)
                0x0202df64                __cxxabiv1::__class_type_info::__do_find_public_src(int, void const*, __cxxabiv1::__class_type_info const*, void const*) const
 .text._ZN10__cxxabiv117__class_type_infoD2Ev
                0x0202df78       0x1c c:/nds/devkitpro/devkitarm/bin/../lib/gcc/arm-none-eabi/4.8.2/../../../../arm-none-eabi/lib/thumb\libstdc++.a(class_type_info.o)
                0x0202df78                __cxxabiv1::__class_type_info::~__class_type_info()
                0x0202df78                __cxxabiv1::__class_type_info::~__class_type_info()
 .text._ZN10__cxxabiv117__class_type_infoD0Ev
                0x0202df94       0x20 c:/nds/devkitpro/devkitarm/bin/../lib/gcc/arm-none-eabi/4.8.2/../../../../arm-none-eabi/lib/thumb\libstdc++.a(class_type_info.o)
                0x0202df94                __cxxabiv1::__class_type_info::~__class_type_info()
 .text._ZNK10__cxxabiv117__class_type_info11__do_upcastEPKS0_PKvRNS0_15__upcast_resultE
                0x0202dfb4       0x20 c:/nds/devkitpro/devkitarm/bin/../lib/gcc/arm-none-eabi/4.8.2/../../../../arm-none-eabi/lib/thumb\libstdc++.a(class_type_info.o)
                0x0202dfb4                __cxxabiv1::__class_type_info::__do_upcast(__cxxabiv1::__class_type_info const*, void const*, __cxxabiv1::__class_type_info::__upcast_result&) const
 .text._ZNK10__cxxabiv117__class_type_info10__do_catchEPKSt9type_infoPPvj
                0x0202dfd4       0x30 c:/nds/devkitpro/devkitarm/bin/../lib/gcc/arm-none-eabi/4.8.2/../../../../arm-none-eabi/lib/thumb\libstdc++.a(class_type_info.o)
                0x0202dfd4                __cxxabiv1::__class_type_info::__do_catch(std::type_info const*, void**, unsigned int) const
 .text._ZNK10__cxxabiv117__class_type_info12__do_dyncastEiNS0_10__sub_kindEPKS0_PKvS3_S5_RNS0_16__dyncast_resultE
                0x0202e004       0x44 c:/nds/devkitpro/devkitarm/bin/../lib/gcc/arm-none-eabi/4.8.2/../../../../arm-none-eabi/lib/thumb\libstdc++.a(class_type_info.o)
                0x0202e004                __cxxabiv1::__class_type_info::__do_dyncast(int, __cxxabiv1::__class_type_info::__sub_kind, __cxxabiv1::__class_type_info const*, void const*, __cxxabiv1::__class_type_info const*, void const*, __cxxabiv1::__class_type_info::__dyncast_result&) const
 .text._ZSt15set_new_handlerPFvvE
                0x0202e048       0x10 c:/nds/devkitpro/devkitarm/bin/../lib/gcc/arm-none-eabi/4.8.2/../../../../arm-none-eabi/lib/thumb\libstdc++.a(new_handler.o)
                0x0202e048                std::set_new_handler(void (*)())
 .text.__cxa_end_cleanup
                0x0202e058        0xc c:/nds/devkitpro/devkitarm/bin/../lib/gcc/arm-none-eabi/4.8.2/../../../../arm-none-eabi/lib/thumb\libstdc++.a(eh_arm.o)
                0x0202e058                __cxa_end_cleanup
 .text.__cxa_type_match
                0x0202e064       0xc4 c:/nds/devkitpro/devkitarm/bin/../lib/gcc/arm-none-eabi/4.8.2/../../../../arm-none-eabi/lib/thumb\libstdc++.a(eh_arm.o)
                0x0202e064                __cxa_type_match
 .text.__cxa_begin_cleanup
                0x0202e128       0x64 c:/nds/devkitpro/devkitarm/bin/../lib/gcc/arm-none-eabi/4.8.2/../../../../arm-none-eabi/lib/thumb\libstdc++.a(eh_arm.o)
                0x0202e128                __cxa_begin_cleanup
 .text.__gnu_end_cleanup
                0x0202e18c       0x74 c:/nds/devkitpro/devkitarm/bin/../lib/gcc/arm-none-eabi/4.8.2/../../../../arm-none-eabi/lib/thumb\libstdc++.a(eh_arm.o)
                0x0202e18c                __gnu_end_cleanup
 .text._ZL23__gxx_exception_cleanup19_Unwind_Reason_CodeP21_Unwind_Control_Block
                0x0202e200       0x30 c:/nds/devkitpro/devkitarm/bin/../lib/gcc/arm-none-eabi/4.8.2/../../../../arm-none-eabi/lib/thumb\libstdc++.a(eh_throw.o)
 .text.__cxa_throw
                0x0202e230       0x68 c:/nds/devkitpro/devkitarm/bin/../lib/gcc/arm-none-eabi/4.8.2/../../../../arm-none-eabi/lib/thumb\libstdc++.a(eh_throw.o)
                0x0202e230                __cxa_throw
 .text.__cxa_rethrow
                0x0202e298       0x74 c:/nds/devkitpro/devkitarm/bin/../lib/gcc/arm-none-eabi/4.8.2/../../../../arm-none-eabi/lib/thumb\libstdc++.a(eh_throw.o)
                0x0202e298                __cxa_rethrow
 .text.__cxa_pure_virtual
                0x0202e30c       0x14 c:/nds/devkitpro/devkitarm/bin/../lib/gcc/arm-none-eabi/4.8.2/../../../../arm-none-eabi/lib/thumb\libstdc++.a(pure.o)
                0x0202e30c                __cxa_pure_virtual
 .text.__cxa_deleted_virtual
                0x0202e320       0x14 c:/nds/devkitpro/devkitarm/bin/../lib/gcc/arm-none-eabi/4.8.2/../../../../arm-none-eabi/lib/thumb\libstdc++.a(pure.o)
                0x0202e320                __cxa_deleted_virtual
 .text.__cxa_get_globals_fast
                0x0202e334        0x8 c:/nds/devkitpro/devkitarm/bin/../lib/gcc/arm-none-eabi/4.8.2/../../../../arm-none-eabi/lib/thumb\libstdc++.a(eh_globals.o)
                0x0202e334                __cxa_get_globals_fast
 .text.__cxa_get_globals
                0x0202e33c        0x8 c:/nds/devkitpro/devkitarm/bin/../lib/gcc/arm-none-eabi/4.8.2/../../../../arm-none-eabi/lib/thumb\libstdc++.a(eh_globals.o)
                0x0202e33c                __cxa_get_globals
 .text.__cxa_get_exception_ptr
                0x0202e344        0x4 c:/nds/devkitpro/devkitarm/bin/../lib/gcc/arm-none-eabi/4.8.2/../../../../arm-none-eabi/lib/thumb\libstdc++.a(eh_catch.o)
                0x0202e344                __cxa_get_exception_ptr
 .text.__cxa_begin_catch
                0x0202e348       0x88 c:/nds/devkitpro/devkitarm/bin/../lib/gcc/arm-none-eabi/4.8.2/../../../../arm-none-eabi/lib/thumb\libstdc++.a(eh_catch.o)
                0x0202e348                __cxa_begin_catch
 .text.__cxa_end_catch
                0x0202e3d0       0x90 c:/nds/devkitpro/devkitarm/bin/../lib/gcc/arm-none-eabi/4.8.2/../../../../arm-none-eabi/lib/thumb\libstdc++.a(eh_catch.o)
                0x0202e3d0                __cxa_end_catch
 .text._ZSt18uncaught_exceptionv
                0x0202e460       0x14 c:/nds/devkitpro/devkitarm/bin/../lib/gcc/arm-none-eabi/4.8.2/../../../../arm-none-eabi/lib/thumb\libstdc++.a(eh_catch.o)
                0x0202e460                std::uncaught_exception()
 .text._ZN10__cxxabiv120__si_class_type_infoD2Ev
                0x0202e474       0x1c c:/nds/devkitpro/devkitarm/bin/../lib/gcc/arm-none-eabi/4.8.2/../../../../arm-none-eabi/lib/thumb\libstdc++.a(si_class_type_info.o)
                0x0202e474                __cxxabiv1::__si_class_type_info::~__si_class_type_info()
                0x0202e474                __cxxabiv1::__si_class_type_info::~__si_class_type_info()
 .text._ZN10__cxxabiv120__si_class_type_infoD0Ev
                0x0202e490       0x20 c:/nds/devkitpro/devkitarm/bin/../lib/gcc/arm-none-eabi/4.8.2/../../../../arm-none-eabi/lib/thumb\libstdc++.a(si_class_type_info.o)
                0x0202e490                __cxxabiv1::__si_class_type_info::~__si_class_type_info()
 .text._ZNK10__cxxabiv120__si_class_type_info20__do_find_public_srcEiPKvPKNS_17__class_type_infoES2_
                0x0202e4b0       0x40 c:/nds/devkitpro/devkitarm/bin/../lib/gcc/arm-none-eabi/4.8.2/../../../../arm-none-eabi/lib/thumb\libstdc++.a(si_class_type_info.o)
                0x0202e4b0                __cxxabiv1::__si_class_type_info::__do_find_public_src(int, void const*, __cxxabiv1::__class_type_info const*, void const*) const
 .text._ZNK10__cxxabiv120__si_class_type_info12__do_dyncastEiNS_17__class_type_info10__sub_kindEPKS1_PKvS4_S6_RNS1_16__dyncast_resultE
                0x0202e4f0       0x9c c:/nds/devkitpro/devkitarm/bin/../lib/gcc/arm-none-eabi/4.8.2/../../../../arm-none-eabi/lib/thumb\libstdc++.a(si_class_type_info.o)
                0x0202e4f0                __cxxabiv1::__si_class_type_info::__do_dyncast(int, __cxxabiv1::__class_type_info::__sub_kind, __cxxabiv1::__class_type_info const*, void const*, __cxxabiv1::__class_type_info const*, void const*, __cxxabiv1::__class_type_info::__dyncast_result&) const
 .text._ZNK10__cxxabiv120__si_class_type_info11__do_upcastEPKNS_17__class_type_infoEPKvRNS1_15__upcast_resultE
                0x0202e58c       0x2c c:/nds/devkitpro/devkitarm/bin/../lib/gcc/arm-none-eabi/4.8.2/../../../../arm-none-eabi/lib/thumb\libstdc++.a(si_class_type_info.o)
                0x0202e58c                __cxxabiv1::__si_class_type_info::__do_upcast(__cxxabiv1::__class_type_info const*, void const*, __cxxabiv1::__class_type_info::__upcast_result&) const
 .text._ZNSt9type_infoD2Ev
                0x0202e5b8        0xc c:/nds/devkitpro/devkitarm/bin/../lib/gcc/arm-none-eabi/4.8.2/../../../../arm-none-eabi/lib/thumb\libstdc++.a(tinfo.o)
                0x0202e5b8                std::type_info::~type_info()
                0x0202e5b8                std::type_info::~type_info()
 .text._ZNKSt9type_info14__is_pointer_pEv
                0x0202e5c4        0x4 c:/nds/devkitpro/devkitarm/bin/../lib/gcc/arm-none-eabi/4.8.2/../../../../arm-none-eabi/lib/thumb\libstdc++.a(tinfo.o)
                0x0202e5c4                std::type_info::__is_pointer_p() const
 .text._ZNKSt9type_info15__is_function_pEv
                0x0202e5c8        0x4 c:/nds/devkitpro/devkitarm/bin/../lib/gcc/arm-none-eabi/4.8.2/../../../../arm-none-eabi/lib/thumb\libstdc++.a(tinfo.o)
                0x0202e5c8                std::type_info::__is_function_p() const
 .text._ZNKSt9type_info11__do_upcastEPKN10__cxxabiv117__class_type_infoEPPv
                0x0202e5cc        0x4 c:/nds/devkitpro/devkitarm/bin/../lib/gcc/arm-none-eabi/4.8.2/../../../../arm-none-eabi/lib/thumb\libstdc++.a(tinfo.o)
                0x0202e5cc                std::type_info::__do_upcast(__cxxabiv1::__class_type_info const*, void**) const
 .text._ZNSt9type_infoD0Ev
                0x0202e5d0       0x1c c:/nds/devkitpro/devkitarm/bin/../lib/gcc/arm-none-eabi/4.8.2/../../../../arm-none-eabi/lib/thumb\libstdc++.a(tinfo.o)
                0x0202e5d0                std::type_info::~type_info()
 .text._ZNKSt9type_infoeqERKS_
                0x0202e5ec       0x30 c:/nds/devkitpro/devkitarm/bin/../lib/gcc/arm-none-eabi/4.8.2/../../../../arm-none-eabi/lib/thumb\libstdc++.a(tinfo.o)
                0x0202e5ec                std::type_info::operator==(std::type_info const&) const
 .text._ZNKSt9type_info10__do_catchEPKS_PPvj
                0x0202e61c        0xc c:/nds/devkitpro/devkitarm/bin/../lib/gcc/arm-none-eabi/4.8.2/../../../../arm-none-eabi/lib/thumb\libstdc++.a(tinfo.o)
                0x0202e61c                std::type_info::__do_catch(std::type_info const*, void**, unsigned int) const
 .text._ZdlPv   0x0202e628       0x10 c:/nds/devkitpro/devkitarm/bin/../lib/gcc/arm-none-eabi/4.8.2/../../../../arm-none-eabi/lib/thumb\libstdc++.a(del_op.o)
                0x0202e628                operator delete(void*)
 .text._ZN9__gnu_cxx27__verbose_terminate_handlerEv
                0x0202e638      0x11c c:/nds/devkitpro/devkitarm/bin/../lib/gcc/arm-none-eabi/4.8.2/../../../../arm-none-eabi/lib/thumb\libstdc++.a(vterminate.o)
                0x0202e638                __gnu_cxx::__verbose_terminate_handler()
 .text.__cxa_current_exception_type
                0x0202e754       0x28 c:/nds/devkitpro/devkitarm/bin/../lib/gcc/arm-none-eabi/4.8.2/../../../../arm-none-eabi/lib/thumb\libstdc++.a(eh_type.o)
                0x0202e754                __cxa_current_exception_type
 *fill*         0x0202e77c        0x4 ff
 .text.__cxa_current_exception_type.__stub
                0x0202e780      0x148 linker stubs
 *(.stub)
 *(.gnu.warning)
 *(.gnu.linkonce.t*)
 *(.glue_7)
 .glue_7        0x00000000        0x0 linker stubs
 *(.glue_7t)
 .glue_7t       0x00000000        0x0 linker stubs
                0x0202e8c8                . = ALIGN (0x4)

.vfp11_veneer   0x0202e8d8        0x0
 .vfp11_veneer  0x00000000        0x0 linker stubs

.v4_bx          0x0202e8d8        0x0
 .v4_bx         0x00000000        0x0 linker stubs

.iplt           0x0202e8d8        0x0
 .iplt          0x00000000        0x0 c:/nds/devkitpro/devkitarm/bin/../lib/gcc/arm-none-eabi/4.8.2/../../../../arm-none-eabi/lib/thumb/ds_arm9_crt0.o

.fini           0x0202e8d8        0xc
 *(.fini)
 .fini          0x0202e8d8        0x4 c:/nds/devkitpro/devkitarm/bin/../lib/gcc/arm-none-eabi/4.8.2/thumb/crti.o
                0x0202e8d8                _fini
 .fini          0x0202e8dc        0x8 c:/nds/devkitpro/devkitarm/bin/../lib/gcc/arm-none-eabi/4.8.2/thumb/crtn.o
                0x0202e8e4                __text_end = .

.rodata         0x0202e8e8     0x97d4
 *(.rodata)
 .rodata        0x0202e8e8       0x50 c:/nds/Projects/Tutoriales/Tutorial1MenuInicial/nflib/lib\libnflib.a(nf_basic.o)
 .rodata        0x0202e938       0x64 c:/nds/devkitPro/libnds/lib\libfat.a(libfat.o)
 .rodata        0x0202e99c        0xc c:/nds/devkitPro/libnds/lib\libfat.a(partition.o)
 .rodata        0x0202e9a8       0x54 c:/nds/devkitPro/libnds/lib\libfat.a(directory.o)
 .rodata        0x0202e9fc       0x18 c:/nds/devkitPro/libnds/lib\libfat.a(disc.o)
                0x0202e9fc                _FAT_disc_interfaces
 .rodata        0x0202ea14      0x200 c:/nds/devkitPro/libnds/lib\libnds9.a(console.o)
 .rodata        0x0202ec14      0x308 c:/nds/devkitPro/libnds/lib\libnds9.a(trig.o)
                0x0202ec14                SIN_LUT
                0x0202ed18                TAN_LUT
 .rodata        0x0202ef1c       0x8c c:/nds/devkitPro/libnds/lib\libnds9.a(videoGL.o)
 .rodata        0x0202efa8        0xc c:/nds/devkitPro/libnds/lib\libnds9.a(dldi.o)
                0x0202efa8                DLDI_MAGIC_STRING_BACKWARDS
                0x0202efb0                DLDI_MAGIC_NUMBER
 .rodata        0x0202efb4       0x20 c:/nds/devkitPro/libnds/lib\libnds9.a(dsi_sd.o)
                0x0202efb4                __io_dsisd
 .rodata        0x0202efd4     0x2004 c:/nds/devkitPro/libnds/lib\libnds9.a(default_font.bin.o)
                0x0202efd4                default_font_bin
                0x02030fd4                default_font_bin_size
                0x02030fd4                default_font_bin_end
 .rodata        0x02030fd8     0x1020 c:/nds/devkitpro/devkitarm/bin/../lib/gcc/arm-none-eabi/4.8.2/../../../../arm-none-eabi/lib/thumb\libstdc++.a(cp-demangle.o)
 .rodata        0x02031ff8      0x104 c:/nds/devkitpro/devkitarm/bin/../lib/gcc/arm-none-eabi/4.8.2/../../../../arm-none-eabi/lib/thumb\libg.a(lib_a-ctype_.o)
                0x02031ff8                _ctype_
 .rodata        0x020320fc        0x4 c:/nds/devkitpro/devkitarm/bin/../lib/gcc/arm-none-eabi/4.8.2/../../../../arm-none-eabi/lib/thumb\libg.a(lib_a-impure.o)
                0x020320fc                _global_impure_ptr
 .rodata        0x02032100       0xf0 c:/nds/devkitpro/devkitarm/bin/../lib/gcc/arm-none-eabi/4.8.2/../../../../arm-none-eabi/lib/thumb\libg.a(lib_a-locale.o)
 .rodata        0x020321f0       0xa8 c:/nds/devkitpro/devkitarm/bin/../lib/gcc/arm-none-eabi/4.8.2/../../../../arm-none-eabi/lib/thumb\libg.a(lib_a-mbtowc_r.o)
 .rodata        0x02032298       0x60 c:/nds/devkitpro/devkitarm/bin/../lib/gcc/arm-none-eabi/4.8.2/../../../../arm-none-eabi/lib/thumb\libg.a(lib_a-mktime.o)
 .rodata        0x020322f8       0x68 c:/nds/devkitpro/devkitarm/bin/../lib/gcc/arm-none-eabi/4.8.2/../../../../arm-none-eabi/lib/thumb\libg.a(lib_a-mktm_r.o)
 .rodata        0x02032360      0x340 c:/nds/devkitpro/devkitarm/bin/../lib/gcc/arm-none-eabi/4.8.2/../../../../arm-none-eabi/lib/thumb\libg.a(lib_a-svfiscanf.o)
 .rodata        0x020326a0      0x184 c:/nds/devkitpro/devkitarm/bin/../lib/gcc/arm-none-eabi/4.8.2/../../../../arm-none-eabi/lib/thumb\libg.a(lib_a-svfprintf.o)
 .rodata        0x02032824      0x674 c:/nds/devkitpro/devkitarm/bin/../lib/gcc/arm-none-eabi/4.8.2/../../../../arm-none-eabi/lib/thumb\libg.a(lib_a-towlower.o)
 .rodata        0x02032e98      0x3e4 c:/nds/devkitpro/devkitarm/bin/../lib/gcc/arm-none-eabi/4.8.2/../../../../arm-none-eabi/lib/thumb\libg.a(lib_a-towupper.o)
 .rodata        0x0203327c      0x184 c:/nds/devkitpro/devkitarm/bin/../lib/gcc/arm-none-eabi/4.8.2/../../../../arm-none-eabi/lib/thumb\libg.a(lib_a-vfiprintf.o)
 .rodata        0x02033400     0x34f0 c:/nds/devkitpro/devkitarm/bin/../lib/gcc/arm-none-eabi/4.8.2/../../../../arm-none-eabi/lib/thumb\libg.a(lib_a-jp2uc.o)
 .rodata        0x020368f0      0x128 c:/nds/devkitpro/devkitarm/bin/../lib/gcc/arm-none-eabi/4.8.2/../../../../arm-none-eabi/lib/thumb\libg.a(lib_a-mprec.o)
                0x02036900                __mprec_tens
                0x020369c8                __mprec_tinytens
                0x020369f0                __mprec_bigtens
 .rodata        0x02036a18      0x184 c:/nds/devkitpro/devkitarm/bin/../lib/gcc/arm-none-eabi/4.8.2/../../../../arm-none-eabi/lib/thumb\libg.a(lib_a-svfiprintf.o)
 .rodata        0x02036b9c       0x64 c:/nds/devkitpro/devkitarm/bin/../lib/gcc/arm-none-eabi/4.8.2/../../../../arm-none-eabi/lib/thumb\libsysbase.a(iosupport.o)
                0x02036b9c                dotab_stdnull
 .rodata        0x02036c00        0xc c:/nds/devkitpro/devkitarm/bin/../lib/gcc/arm-none-eabi/4.8.2/../../../../arm-none-eabi/lib/thumb\libsysbase.a(chdir.o)
                0x02036c00                DIRECTORY_PARENT
                0x02036c04                DIRECTORY_THIS
                0x02036c08                DIRECTORY_SEPARATOR
 *all.rodata*(*)
 *(.roda)
 *(.rodata.*)
 .rodata.str1.4
                0x02036c0c       0x16 main.o
                                 0x18 (size before relaxing)
 *fill*         0x02036c22        0x2 ff
 .rodata.str1.4
                0x02036c24       0x27 c:/nds/Projects/Tutoriales/Tutorial1MenuInicial/nflib/lib\libnflib.a(nf_2d.o)
                                 0x28 (size before relaxing)
 *fill*         0x02036c4b        0x1 ff
 .rodata.str1.4
                0x02036c4c      0x613 c:/nds/Projects/Tutoriales/Tutorial1MenuInicial/nflib/lib\libnflib.a(nf_basic.o)
                                0x628 (size before relaxing)
 *fill*         0x0203725f        0x1 ff
 .rodata.str1.4
                0x02037260       0x70 c:/nds/Projects/Tutoriales/Tutorial1MenuInicial/nflib/lib\libnflib.a(nf_sprite256.o)
                                 0x7c (size before relaxing)
 .rodata.str1.4
                0x020372d0       0x47 c:/nds/Projects/Tutoriales/Tutorial1MenuInicial/nflib/lib\libnflib.a(nf_sprite3d.o)
                                 0xac (size before relaxing)
 *fill*         0x02037317        0x1 ff
 .rodata.str1.4
                0x02037318       0x15 c:/nds/Projects/Tutoriales/Tutorial1MenuInicial/nflib/lib\libnflib.a(nf_text.o)
                                 0x28 (size before relaxing)
 *fill*         0x0203732d        0x3 ff
 .rodata.str1.4
                0x02037330       0x40 c:/nds/Projects/Tutoriales/Tutorial1MenuInicial/nflib/lib\libnflib.a(nf_tiledbg.o)
                                 0x6c (size before relaxing)
 .rodata.str1.4
                0x02037370       0x16 c:/nds/devkitPro/libnds/lib\libfilesystem.a(nitrofs.o)
                                 0x20 (size before relaxing)
 *fill*         0x02037386        0x2 ff
 .rodata.str1.4
                0x02037388        0xc c:/nds/devkitPro/libnds/lib\libfat.a(libfat.o)
                                 0x14 (size before relaxing)
 .rodata.str1.4
                0x00000000        0x8 c:/nds/devkitPro/libnds/lib\libfat.a(directory.o)
 .rodata.str1.4
                0x00000000        0x8 c:/nds/devkitPro/libnds/lib\libfat.a(disc.o)
 .rodata.str1.4
                0x02037394        0x5 c:/nds/devkitPro/libnds/lib\libfat.a(fatdir.o)
                                  0x8 (size before relaxing)
 *fill*         0x02037399        0x3 ff
 .rodata.str1.4
                0x0203739c       0x4c c:/nds/devkitPro/libnds/lib\libnds9.a(console.o)
 .rodata._ZL28read_encoded_value_with_basehjPKhPj
                0x020373e8       0x34 c:/nds/devkitpro/devkitarm/bin/../lib/gcc/arm-none-eabi/4.8.2/../../../../arm-none-eabi/lib/thumb\libstdc++.a(eh_personality.o)
 *fill*         0x0203741c        0x4 ff
 .rodata._ZTVN10__cxxabiv115__forced_unwindE
                0x02037420       0x18 c:/nds/devkitpro/devkitarm/bin/../lib/gcc/arm-none-eabi/4.8.2/../../../../arm-none-eabi/lib/thumb\libstdc++.a(eh_exception.o)
                0x02037420                vtable for __cxxabiv1::__forced_unwind
 .rodata._ZTVSt9exception
                0x02037438       0x18 c:/nds/devkitpro/devkitarm/bin/../lib/gcc/arm-none-eabi/4.8.2/../../../../arm-none-eabi/lib/thumb\libstdc++.a(eh_exception.o)
                0x02037438                vtable for std::exception
 .rodata._ZTIN10__cxxabiv115__forced_unwindE
                0x02037450        0x8 c:/nds/devkitpro/devkitarm/bin/../lib/gcc/arm-none-eabi/4.8.2/../../../../arm-none-eabi/lib/thumb\libstdc++.a(eh_exception.o)
                0x02037450                typeinfo for __cxxabiv1::__forced_unwind
 .rodata._ZTISt9exception
                0x02037458        0x8 c:/nds/devkitpro/devkitarm/bin/../lib/gcc/arm-none-eabi/4.8.2/../../../../arm-none-eabi/lib/thumb\libstdc++.a(eh_exception.o)
                0x02037458                typeinfo for std::exception
 .rodata._ZTSSt13bad_exception
                0x02037460       0x14 c:/nds/devkitpro/devkitarm/bin/../lib/gcc/arm-none-eabi/4.8.2/../../../../arm-none-eabi/lib/thumb\libstdc++.a(eh_exception.o)
                0x02037460                typeinfo name for std::bad_exception
 .rodata.str1.4
                0x02037474       0x23 c:/nds/devkitpro/devkitarm/bin/../lib/gcc/arm-none-eabi/4.8.2/../../../../arm-none-eabi/lib/thumb\libstdc++.a(eh_exception.o)
                                 0x24 (size before relaxing)
 *fill*         0x02037497        0x1 ff
 .rodata._ZTSN10__cxxabiv119__foreign_exceptionE
                0x02037498       0x24 c:/nds/devkitpro/devkitarm/bin/../lib/gcc/arm-none-eabi/4.8.2/../../../../arm-none-eabi/lib/thumb\libstdc++.a(eh_exception.o)
                0x02037498                typeinfo name for __cxxabiv1::__foreign_exception
 .rodata._ZTIN10__cxxabiv119__foreign_exceptionE
                0x020374bc        0x8 c:/nds/devkitpro/devkitarm/bin/../lib/gcc/arm-none-eabi/4.8.2/../../../../arm-none-eabi/lib/thumb\libstdc++.a(eh_exception.o)
                0x020374bc                typeinfo for __cxxabiv1::__foreign_exception
 *fill*         0x020374c4        0x4 ff
 .rodata._ZTVSt13bad_exception
                0x020374c8       0x18 c:/nds/devkitpro/devkitarm/bin/../lib/gcc/arm-none-eabi/4.8.2/../../../../arm-none-eabi/lib/thumb\libstdc++.a(eh_exception.o)
                0x020374c8                vtable for std::bad_exception
 .rodata._ZTSSt9exception
                0x020374e0       0x10 c:/nds/devkitpro/devkitarm/bin/../lib/gcc/arm-none-eabi/4.8.2/../../../../arm-none-eabi/lib/thumb\libstdc++.a(eh_exception.o)
                0x020374e0                typeinfo name for std::exception
 .rodata._ZTVN10__cxxabiv119__foreign_exceptionE
                0x020374f0       0x18 c:/nds/devkitpro/devkitarm/bin/../lib/gcc/arm-none-eabi/4.8.2/../../../../arm-none-eabi/lib/thumb\libstdc++.a(eh_exception.o)
                0x020374f0                vtable for __cxxabiv1::__foreign_exception
 .rodata._ZTSN10__cxxabiv115__forced_unwindE
                0x02037508       0x20 c:/nds/devkitpro/devkitarm/bin/../lib/gcc/arm-none-eabi/4.8.2/../../../../arm-none-eabi/lib/thumb\libstdc++.a(eh_exception.o)
                0x02037508                typeinfo name for __cxxabiv1::__forced_unwind
 .rodata._ZTISt13bad_exception
                0x02037528        0xc c:/nds/devkitpro/devkitarm/bin/../lib/gcc/arm-none-eabi/4.8.2/../../../../arm-none-eabi/lib/thumb\libstdc++.a(eh_exception.o)
                0x02037528                typeinfo for std::bad_exception
 *fill*         0x02037534        0x4 ff
 .rodata._ZTVSt9bad_alloc
                0x02037538       0x18 c:/nds/devkitpro/devkitarm/bin/../lib/gcc/arm-none-eabi/4.8.2/../../../../arm-none-eabi/lib/thumb\libstdc++.a(bad_alloc.o)
                0x02037538                vtable for std::bad_alloc
 .rodata._ZTISt9bad_alloc
                0x02037550        0xc c:/nds/devkitpro/devkitarm/bin/../lib/gcc/arm-none-eabi/4.8.2/../../../../arm-none-eabi/lib/thumb\libstdc++.a(bad_alloc.o)
                0x02037550                typeinfo for std::bad_alloc
 .rodata.str1.4
                0x0203755c        0xf c:/nds/devkitpro/devkitarm/bin/../lib/gcc/arm-none-eabi/4.8.2/../../../../arm-none-eabi/lib/thumb\libstdc++.a(bad_alloc.o)
                                 0x10 (size before relaxing)
 *fill*         0x0203756b        0x1 ff
 .rodata._ZTSSt9bad_alloc
                0x0203756c       0x10 c:/nds/devkitpro/devkitarm/bin/../lib/gcc/arm-none-eabi/4.8.2/../../../../arm-none-eabi/lib/thumb\libstdc++.a(bad_alloc.o)
                0x0203756c                typeinfo name for std::bad_alloc
 *fill*         0x0203757c        0x4 ff
 .rodata._ZTVN10__cxxabiv117__class_type_infoE
                0x02037580       0x30 c:/nds/devkitpro/devkitarm/bin/../lib/gcc/arm-none-eabi/4.8.2/../../../../arm-none-eabi/lib/thumb\libstdc++.a(class_type_info.o)
                0x02037580                vtable for __cxxabiv1::__class_type_info
 .rodata._ZTIN10__cxxabiv117__class_type_infoE
                0x020375b0        0xc c:/nds/devkitpro/devkitarm/bin/../lib/gcc/arm-none-eabi/4.8.2/../../../../arm-none-eabi/lib/thumb\libstdc++.a(class_type_info.o)
                0x020375b0                typeinfo for __cxxabiv1::__class_type_info
 .rodata._ZTSN10__cxxabiv117__class_type_infoE
                0x020375bc       0x24 c:/nds/devkitpro/devkitarm/bin/../lib/gcc/arm-none-eabi/4.8.2/../../../../arm-none-eabi/lib/thumb\libstdc++.a(class_type_info.o)
                0x020375bc                typeinfo name for __cxxabiv1::__class_type_info
 .rodata._ZSt7nothrow
                0x020375e0        0x4 c:/nds/devkitpro/devkitarm/bin/../lib/gcc/arm-none-eabi/4.8.2/../../../../arm-none-eabi/lib/thumb\libstdc++.a(new_handler.o)
                0x020375e0                std::nothrow
 .rodata.str1.4
                0x020375e4       0x3b c:/nds/devkitpro/devkitarm/bin/../lib/gcc/arm-none-eabi/4.8.2/../../../../arm-none-eabi/lib/thumb\libstdc++.a(pure.o)
                                 0x3c (size before relaxing)
 *fill*         0x0203761f        0x1 ff
 .rodata._ZTVN10__cxxabiv120__si_class_type_infoE
                0x02037620       0x30 c:/nds/devkitpro/devkitarm/bin/../lib/gcc/arm-none-eabi/4.8.2/../../../../arm-none-eabi/lib/thumb\libstdc++.a(si_class_type_info.o)
                0x02037620                vtable for __cxxabiv1::__si_class_type_info
 .rodata._ZTIN10__cxxabiv120__si_class_type_infoE
                0x02037650        0xc c:/nds/devkitpro/devkitarm/bin/../lib/gcc/arm-none-eabi/4.8.2/../../../../arm-none-eabi/lib/thumb\libstdc++.a(si_class_type_info.o)
                0x02037650                typeinfo for __cxxabiv1::__si_class_type_info
 .rodata._ZTSN10__cxxabiv120__si_class_type_infoE
                0x0203765c       0x28 c:/nds/devkitpro/devkitarm/bin/../lib/gcc/arm-none-eabi/4.8.2/../../../../arm-none-eabi/lib/thumb\libstdc++.a(si_class_type_info.o)
                0x0203765c                typeinfo name for __cxxabiv1::__si_class_type_info
 .rodata._ZTISt9type_info
                0x02037684        0x8 c:/nds/devkitpro/devkitarm/bin/../lib/gcc/arm-none-eabi/4.8.2/../../../../arm-none-eabi/lib/thumb\libstdc++.a(tinfo.o)
                0x02037684                typeinfo for std::type_info
 .rodata._ZTSSt9type_info
                0x0203768c       0x10 c:/nds/devkitpro/devkitarm/bin/../lib/gcc/arm-none-eabi/4.8.2/../../../../arm-none-eabi/lib/thumb\libstdc++.a(tinfo.o)
                0x0203768c                typeinfo name for std::type_info
 *fill*         0x0203769c        0x4 ff
 .rodata._ZTVSt9type_info
                0x020376a0       0x20 c:/nds/devkitpro/devkitarm/bin/../lib/gcc/arm-none-eabi/4.8.2/../../../../arm-none-eabi/lib/thumb\libstdc++.a(tinfo.o)
                0x020376a0                vtable for std::type_info
 .rodata.str1.4
                0x020376c0       0x94 c:/nds/devkitpro/devkitarm/bin/../lib/gcc/arm-none-eabi/4.8.2/../../../../arm-none-eabi/lib/thumb\libstdc++.a(vterminate.o)
 .rodata.str1.4
                0x02037754      0x7e2 c:/nds/devkitpro/devkitarm/bin/../lib/gcc/arm-none-eabi/4.8.2/../../../../arm-none-eabi/lib/thumb\libstdc++.a(cp-demangle.o)
                                0x840 (size before relaxing)
 *fill*         0x02037f36        0x2 ff
 .rodata.str1.4
                0x02037f38        0x2 c:/nds/devkitpro/devkitarm/bin/../lib/gcc/arm-none-eabi/4.8.2/../../../../arm-none-eabi/lib/thumb\libg.a(lib_a-impure.o)
                                  0x4 (size before relaxing)
 *fill*         0x02037f3a        0x2 ff
 .rodata.str1.4
                0x02037f3c      0x120 c:/nds/devkitpro/devkitarm/bin/../lib/gcc/arm-none-eabi/4.8.2/../../../../arm-none-eabi/lib/thumb\libg.a(lib_a-locale.o)
                                0x130 (size before relaxing)
 .rodata.str1.4
                0x00000000        0x4 c:/nds/devkitpro/devkitarm/bin/../lib/gcc/arm-none-eabi/4.8.2/../../../../arm-none-eabi/lib/thumb\libg.a(lib_a-mbrtowc.o)
 .rodata.str1.4
                0x0203805c       0x42 c:/nds/devkitpro/devkitarm/bin/../lib/gcc/arm-none-eabi/4.8.2/../../../../arm-none-eabi/lib/thumb\libg.a(lib_a-svfprintf.o)
                                 0x44 (size before relaxing)
 *fill*         0x0203809e        0x2 ff
 .rodata.str1.4
                0x020380a0        0x4 c:/nds/devkitpro/devkitarm/bin/../lib/gcc/arm-none-eabi/4.8.2/../../../../arm-none-eabi/lib/thumb\libg.a(lib_a-tzvars.o)
 .rodata.str1.4
                0x00000000       0x30 c:/nds/devkitpro/devkitarm/bin/../lib/gcc/arm-none-eabi/4.8.2/../../../../arm-none-eabi/lib/thumb\libg.a(lib_a-vfiprintf.o)
 .rodata.str1.4
                0x020380a4       0x10 c:/nds/devkitpro/devkitarm/bin/../lib/gcc/arm-none-eabi/4.8.2/../../../../arm-none-eabi/lib/thumb\libg.a(lib_a-dtoa.o)
                                 0x14 (size before relaxing)
 .rodata.str1.4
                0x00000000       0x14 c:/nds/devkitpro/devkitarm/bin/../lib/gcc/arm-none-eabi/4.8.2/../../../../arm-none-eabi/lib/thumb\libg.a(lib_a-jp2uc.o)
 .rodata.str1.4
                0x00000000       0x30 c:/nds/devkitpro/devkitarm/bin/../lib/gcc/arm-none-eabi/4.8.2/../../../../arm-none-eabi/lib/thumb\libg.a(lib_a-svfiprintf.o)
 .rodata.str1.4
                0x020380b4        0x8 c:/nds/devkitpro/devkitarm/bin/../lib/gcc/arm-none-eabi/4.8.2/../../../../arm-none-eabi/lib/thumb\libsysbase.a(iosupport.o)
 *(.gnu.linkonce.r*)
                0x020380bc                . = ALIGN (0x4)

.ARM.extab      0x020380bc      0x14c
 *(.ARM.extab* .gnu.linkonce.armextab.*)
 .ARM.extab.text._Znwj
                0x020380bc       0x20 c:/nds/devkitpro/devkitarm/bin/../lib/gcc/arm-none-eabi/4.8.2/../../../../arm-none-eabi/lib/thumb\libstdc++.a(new_op.o)
 .ARM.extab.text._ZN10__cxxabiv1L24__is_gxx_exception_classEPc
                0x020380dc        0x0 c:/nds/devkitpro/devkitarm/bin/../lib/gcc/arm-none-eabi/4.8.2/../../../../arm-none-eabi/lib/thumb\libstdc++.a(eh_call.o)
 .ARM.extab.text.__cxa_call_terminate
                0x020380dc        0x0 c:/nds/devkitpro/devkitarm/bin/../lib/gcc/arm-none-eabi/4.8.2/../../../../arm-none-eabi/lib/thumb\libstdc++.a(eh_call.o)
 .ARM.extab.text.__cxa_call_unexpected
                0x020380dc       0x30 c:/nds/devkitpro/devkitarm/bin/../lib/gcc/arm-none-eabi/4.8.2/../../../../arm-none-eabi/lib/thumb\libstdc++.a(eh_call.o)
 .ARM.extab.text._ZL12read_sleb128PKhPl
                0x0203810c        0x0 c:/nds/devkitpro/devkitarm/bin/../lib/gcc/arm-none-eabi/4.8.2/../../../../arm-none-eabi/lib/thumb\libstdc++.a(eh_personality.o)
 .ARM.extab.text._ZL28read_encoded_value_with_basehjPKhPj
                0x0203810c        0xc c:/nds/devkitpro/devkitarm/bin/../lib/gcc/arm-none-eabi/4.8.2/../../../../arm-none-eabi/lib/thumb\libstdc++.a(eh_personality.o)
 .ARM.extab.text._ZL21base_of_encoded_valuehP15_Unwind_Context
                0x02038118        0xc c:/nds/devkitpro/devkitarm/bin/../lib/gcc/arm-none-eabi/4.8.2/../../../../arm-none-eabi/lib/thumb\libstdc++.a(eh_personality.o)
 .ARM.extab.text._ZL17parse_lsda_headerP15_Unwind_ContextPKhP16lsda_header_info
                0x02038124        0x0 c:/nds/devkitpro/devkitarm/bin/../lib/gcc/arm-none-eabi/4.8.2/../../../../arm-none-eabi/lib/thumb\libstdc++.a(eh_personality.o)
 .ARM.extab.text.__gxx_personality_v0
                0x02038124       0x24 c:/nds/devkitpro/devkitarm/bin/../lib/gcc/arm-none-eabi/4.8.2/../../../../arm-none-eabi/lib/thumb\libstdc++.a(eh_personality.o)
 .ARM.extab.text._ZN10__cxxabiv111__terminateEPFvvE
                0x02038148       0x28 c:/nds/devkitpro/devkitarm/bin/../lib/gcc/arm-none-eabi/4.8.2/../../../../arm-none-eabi/lib/thumb\libstdc++.a(eh_terminate.o)
 .ARM.extab.text._ZSt9terminatev
                0x02038170        0x0 c:/nds/devkitpro/devkitarm/bin/../lib/gcc/arm-none-eabi/4.8.2/../../../../arm-none-eabi/lib/thumb\libstdc++.a(eh_terminate.o)
 .ARM.extab.text._ZN10__cxxabiv112__unexpectedEPFvvE
                0x02038170        0xc c:/nds/devkitpro/devkitarm/bin/../lib/gcc/arm-none-eabi/4.8.2/../../../../arm-none-eabi/lib/thumb\libstdc++.a(eh_terminate.o)
 .ARM.extab.text._ZSt10unexpectedv
                0x0203817c        0xc c:/nds/devkitpro/devkitarm/bin/../lib/gcc/arm-none-eabi/4.8.2/../../../../arm-none-eabi/lib/thumb\libstdc++.a(eh_terminate.o)
 .ARM.extab.text._ZSt13set_terminatePFvvE
                0x02038188        0x0 c:/nds/devkitpro/devkitarm/bin/../lib/gcc/arm-none-eabi/4.8.2/../../../../arm-none-eabi/lib/thumb\libstdc++.a(eh_terminate.o)
 .ARM.extab.text._ZSt14set_unexpectedPFvvE
                0x02038188        0x0 c:/nds/devkitpro/devkitarm/bin/../lib/gcc/arm-none-eabi/4.8.2/../../../../arm-none-eabi/lib/thumb\libstdc++.a(eh_terminate.o)
 .ARM.extab.text._ZNSt9exceptionD2Ev
                0x02038188        0x0 c:/nds/devkitpro/devkitarm/bin/../lib/gcc/arm-none-eabi/4.8.2/../../../../arm-none-eabi/lib/thumb\libstdc++.a(eh_exception.o)
 .ARM.extab.text._ZNSt13bad_exceptionD2Ev
                0x02038188        0x0 c:/nds/devkitpro/devkitarm/bin/../lib/gcc/arm-none-eabi/4.8.2/../../../../arm-none-eabi/lib/thumb\libstdc++.a(eh_exception.o)
 .ARM.extab.text._ZN10__cxxabiv115__forced_unwindD2Ev
                0x02038188        0x0 c:/nds/devkitpro/devkitarm/bin/../lib/gcc/arm-none-eabi/4.8.2/../../../../arm-none-eabi/lib/thumb\libstdc++.a(eh_exception.o)
 .ARM.extab.text._ZN10__cxxabiv119__foreign_exceptionD2Ev
                0x02038188        0x0 c:/nds/devkitpro/devkitarm/bin/../lib/gcc/arm-none-eabi/4.8.2/../../../../arm-none-eabi/lib/thumb\libstdc++.a(eh_exception.o)
 .ARM.extab.text._ZNKSt9exception4whatEv
                0x02038188        0x0 c:/nds/devkitpro/devkitarm/bin/../lib/gcc/arm-none-eabi/4.8.2/../../../../arm-none-eabi/lib/thumb\libstdc++.a(eh_exception.o)
 .ARM.extab.text._ZNKSt13bad_exception4whatEv
                0x02038188        0x0 c:/nds/devkitpro/devkitarm/bin/../lib/gcc/arm-none-eabi/4.8.2/../../../../arm-none-eabi/lib/thumb\libstdc++.a(eh_exception.o)
 .ARM.extab.text._ZNSt9exceptionD0Ev
                0x02038188        0x0 c:/nds/devkitpro/devkitarm/bin/../lib/gcc/arm-none-eabi/4.8.2/../../../../arm-none-eabi/lib/thumb\libstdc++.a(eh_exception.o)
 .ARM.extab.text._ZNSt13bad_exceptionD0Ev
                0x02038188        0x0 c:/nds/devkitpro/devkitarm/bin/../lib/gcc/arm-none-eabi/4.8.2/../../../../arm-none-eabi/lib/thumb\libstdc++.a(eh_exception.o)
 .ARM.extab.text._ZN10__cxxabiv115__forced_unwindD0Ev
                0x02038188        0x0 c:/nds/devkitpro/devkitarm/bin/../lib/gcc/arm-none-eabi/4.8.2/../../../../arm-none-eabi/lib/thumb\libstdc++.a(eh_exception.o)
 .ARM.extab.text._ZN10__cxxabiv119__foreign_exceptionD0Ev
                0x02038188        0x0 c:/nds/devkitpro/devkitarm/bin/../lib/gcc/arm-none-eabi/4.8.2/../../../../arm-none-eabi/lib/thumb\libstdc++.a(eh_exception.o)
 .ARM.extab.text.__cxa_allocate_exception
                0x02038188        0x0 c:/nds/devkitpro/devkitarm/bin/../lib/gcc/arm-none-eabi/4.8.2/../../../../arm-none-eabi/lib/thumb\libstdc++.a(eh_alloc.o)
 .ARM.extab.text.__cxa_free_exception
                0x02038188        0x0 c:/nds/devkitpro/devkitarm/bin/../lib/gcc/arm-none-eabi/4.8.2/../../../../arm-none-eabi/lib/thumb\libstdc++.a(eh_alloc.o)
 .ARM.extab.text.__cxa_allocate_dependent_exception
                0x02038188        0x0 c:/nds/devkitpro/devkitarm/bin/../lib/gcc/arm-none-eabi/4.8.2/../../../../arm-none-eabi/lib/thumb\libstdc++.a(eh_alloc.o)
 .ARM.extab.text.__cxa_free_dependent_exception
                0x02038188        0x0 c:/nds/devkitpro/devkitarm/bin/../lib/gcc/arm-none-eabi/4.8.2/../../../../arm-none-eabi/lib/thumb\libstdc++.a(eh_alloc.o)
 .ARM.extab.text._ZNKSt9bad_alloc4whatEv
                0x02038188        0x0 c:/nds/devkitpro/devkitarm/bin/../lib/gcc/arm-none-eabi/4.8.2/../../../../arm-none-eabi/lib/thumb\libstdc++.a(bad_alloc.o)
 .ARM.extab.text._ZNSt9bad_allocD2Ev
                0x02038188        0x0 c:/nds/devkitpro/devkitarm/bin/../lib/gcc/arm-none-eabi/4.8.2/../../../../arm-none-eabi/lib/thumb\libstdc++.a(bad_alloc.o)
 .ARM.extab.text._ZNSt9bad_allocD0Ev
                0x02038188        0x0 c:/nds/devkitpro/devkitarm/bin/../lib/gcc/arm-none-eabi/4.8.2/../../../../arm-none-eabi/lib/thumb\libstdc++.a(bad_alloc.o)
 .ARM.extab.text._ZNK10__cxxabiv117__class_type_info11__do_upcastEPKS0_PPv
                0x02038188        0x0 c:/nds/devkitpro/devkitarm/bin/../lib/gcc/arm-none-eabi/4.8.2/../../../../arm-none-eabi/lib/thumb\libstdc++.a(class_type_info.o)
 .ARM.extab.text._ZNK10__cxxabiv117__class_type_info20__do_find_public_srcEiPKvPKS0_S2_
                0x02038188        0x0 c:/nds/devkitpro/devkitarm/bin/../lib/gcc/arm-none-eabi/4.8.2/../../../../arm-none-eabi/lib/thumb\libstdc++.a(class_type_info.o)
 .ARM.extab.text._ZN10__cxxabiv117__class_type_infoD2Ev
                0x02038188        0x0 c:/nds/devkitpro/devkitarm/bin/../lib/gcc/arm-none-eabi/4.8.2/../../../../arm-none-eabi/lib/thumb\libstdc++.a(class_type_info.o)
 .ARM.extab.text._ZN10__cxxabiv117__class_type_infoD0Ev
                0x02038188        0x0 c:/nds/devkitpro/devkitarm/bin/../lib/gcc/arm-none-eabi/4.8.2/../../../../arm-none-eabi/lib/thumb\libstdc++.a(class_type_info.o)
 .ARM.extab.text._ZNK10__cxxabiv117__class_type_info11__do_upcastEPKS0_PKvRNS0_15__upcast_resultE
                0x02038188        0x0 c:/nds/devkitpro/devkitarm/bin/../lib/gcc/arm-none-eabi/4.8.2/../../../../arm-none-eabi/lib/thumb\libstdc++.a(class_type_info.o)
 .ARM.extab.text._ZNK10__cxxabiv117__class_type_info10__do_catchEPKSt9type_infoPPvj
                0x02038188        0x0 c:/nds/devkitpro/devkitarm/bin/../lib/gcc/arm-none-eabi/4.8.2/../../../../arm-none-eabi/lib/thumb\libstdc++.a(class_type_info.o)
 .ARM.extab.text._ZNK10__cxxabiv117__class_type_info12__do_dyncastEiNS0_10__sub_kindEPKS0_PKvS3_S5_RNS0_16__dyncast_resultE
                0x02038188        0x0 c:/nds/devkitpro/devkitarm/bin/../lib/gcc/arm-none-eabi/4.8.2/../../../../arm-none-eabi/lib/thumb\libstdc++.a(class_type_info.o)
 .ARM.extab.text._ZSt15set_new_handlerPFvvE
                0x02038188        0x0 c:/nds/devkitpro/devkitarm/bin/../lib/gcc/arm-none-eabi/4.8.2/../../../../arm-none-eabi/lib/thumb\libstdc++.a(new_handler.o)
 .ARM.extab.text.__cxa_type_match
                0x02038188        0x0 c:/nds/devkitpro/devkitarm/bin/../lib/gcc/arm-none-eabi/4.8.2/../../../../arm-none-eabi/lib/thumb\libstdc++.a(eh_arm.o)
 .ARM.extab.text.__cxa_begin_cleanup
                0x02038188        0x0 c:/nds/devkitpro/devkitarm/bin/../lib/gcc/arm-none-eabi/4.8.2/../../../../arm-none-eabi/lib/thumb\libstdc++.a(eh_arm.o)
 .ARM.extab.text.__gnu_end_cleanup
                0x02038188        0x0 c:/nds/devkitpro/devkitarm/bin/../lib/gcc/arm-none-eabi/4.8.2/../../../../arm-none-eabi/lib/thumb\libstdc++.a(eh_arm.o)
 .ARM.extab.text._ZL23__gxx_exception_cleanup19_Unwind_Reason_CodeP21_Unwind_Control_Block
                0x02038188        0x0 c:/nds/devkitpro/devkitarm/bin/../lib/gcc/arm-none-eabi/4.8.2/../../../../arm-none-eabi/lib/thumb\libstdc++.a(eh_throw.o)
 .ARM.extab.text.__cxa_throw
                0x02038188        0x0 c:/nds/devkitpro/devkitarm/bin/../lib/gcc/arm-none-eabi/4.8.2/../../../../arm-none-eabi/lib/thumb\libstdc++.a(eh_throw.o)
 .ARM.extab.text.__cxa_rethrow
                0x02038188        0x0 c:/nds/devkitpro/devkitarm/bin/../lib/gcc/arm-none-eabi/4.8.2/../../../../arm-none-eabi/lib/thumb\libstdc++.a(eh_throw.o)
 .ARM.extab.text.__cxa_pure_virtual
                0x02038188        0xc c:/nds/devkitpro/devkitarm/bin/../lib/gcc/arm-none-eabi/4.8.2/../../../../arm-none-eabi/lib/thumb\libstdc++.a(pure.o)
 .ARM.extab.text.__cxa_deleted_virtual
                0x02038194        0xc c:/nds/devkitpro/devkitarm/bin/../lib/gcc/arm-none-eabi/4.8.2/../../../../arm-none-eabi/lib/thumb\libstdc++.a(pure.o)
 .ARM.extab.text.__cxa_get_globals_fast
                0x020381a0        0x0 c:/nds/devkitpro/devkitarm/bin/../lib/gcc/arm-none-eabi/4.8.2/../../../../arm-none-eabi/lib/thumb\libstdc++.a(eh_globals.o)
 .ARM.extab.text.__cxa_get_globals
                0x020381a0        0x0 c:/nds/devkitpro/devkitarm/bin/../lib/gcc/arm-none-eabi/4.8.2/../../../../arm-none-eabi/lib/thumb\libstdc++.a(eh_globals.o)
 .ARM.extab.text.__cxa_get_exception_ptr
                0x020381a0        0x0 c:/nds/devkitpro/devkitarm/bin/../lib/gcc/arm-none-eabi/4.8.2/../../../../arm-none-eabi/lib/thumb\libstdc++.a(eh_catch.o)
 .ARM.extab.text.__cxa_begin_catch
                0x020381a0       0x1c c:/nds/devkitpro/devkitarm/bin/../lib/gcc/arm-none-eabi/4.8.2/../../../../arm-none-eabi/lib/thumb\libstdc++.a(eh_catch.o)
 .ARM.extab.text.__cxa_end_catch
                0x020381bc        0xc c:/nds/devkitpro/devkitarm/bin/../lib/gcc/arm-none-eabi/4.8.2/../../../../arm-none-eabi/lib/thumb\libstdc++.a(eh_catch.o)
 .ARM.extab.text._ZSt18uncaught_exceptionv
                0x020381c8        0x0 c:/nds/devkitpro/devkitarm/bin/../lib/gcc/arm-none-eabi/4.8.2/../../../../arm-none-eabi/lib/thumb\libstdc++.a(eh_catch.o)
 .ARM.extab.text._ZN10__cxxabiv120__si_class_type_infoD2Ev
                0x020381c8        0x0 c:/nds/devkitpro/devkitarm/bin/../lib/gcc/arm-none-eabi/4.8.2/../../../../arm-none-eabi/lib/thumb\libstdc++.a(si_class_type_info.o)
 .ARM.extab.text._ZN10__cxxabiv120__si_class_type_infoD0Ev
                0x020381c8        0x0 c:/nds/devkitpro/devkitarm/bin/../lib/gcc/arm-none-eabi/4.8.2/../../../../arm-none-eabi/lib/thumb\libstdc++.a(si_class_type_info.o)
 .ARM.extab.text._ZNK10__cxxabiv120__si_class_type_info20__do_find_public_srcEiPKvPKNS_17__class_type_infoES2_
                0x020381c8        0x0 c:/nds/devkitpro/devkitarm/bin/../lib/gcc/arm-none-eabi/4.8.2/../../../../arm-none-eabi/lib/thumb\libstdc++.a(si_class_type_info.o)
 .ARM.extab.text._ZNK10__cxxabiv120__si_class_type_info12__do_dyncastEiNS_17__class_type_info10__sub_kindEPKS1_PKvS4_S6_RNS1_16__dyncast_resultE
                0x020381c8        0xc c:/nds/devkitpro/devkitarm/bin/../lib/gcc/arm-none-eabi/4.8.2/../../../../arm-none-eabi/lib/thumb\libstdc++.a(si_class_type_info.o)
 .ARM.extab.text._ZNK10__cxxabiv120__si_class_type_info11__do_upcastEPKNS_17__class_type_infoEPKvRNS1_15__upcast_resultE
                0x020381d4        0x0 c:/nds/devkitpro/devkitarm/bin/../lib/gcc/arm-none-eabi/4.8.2/../../../../arm-none-eabi/lib/thumb\libstdc++.a(si_class_type_info.o)
 .ARM.extab.text._ZNSt9type_infoD2Ev
                0x020381d4        0x0 c:/nds/devkitpro/devkitarm/bin/../lib/gcc/arm-none-eabi/4.8.2/../../../../arm-none-eabi/lib/thumb\libstdc++.a(tinfo.o)
 .ARM.extab.text._ZNKSt9type_info14__is_pointer_pEv
                0x020381d4        0x0 c:/nds/devkitpro/devkitarm/bin/../lib/gcc/arm-none-eabi/4.8.2/../../../../arm-none-eabi/lib/thumb\libstdc++.a(tinfo.o)
 .ARM.extab.text._ZNKSt9type_info15__is_function_pEv
                0x020381d4        0x0 c:/nds/devkitpro/devkitarm/bin/../lib/gcc/arm-none-eabi/4.8.2/../../../../arm-none-eabi/lib/thumb\libstdc++.a(tinfo.o)
 .ARM.extab.text._ZNKSt9type_info11__do_upcastEPKN10__cxxabiv117__class_type_infoEPPv
                0x020381d4        0x0 c:/nds/devkitpro/devkitarm/bin/../lib/gcc/arm-none-eabi/4.8.2/../../../../arm-none-eabi/lib/thumb\libstdc++.a(tinfo.o)
 .ARM.extab.text._ZNSt9type_infoD0Ev
                0x020381d4        0x0 c:/nds/devkitpro/devkitarm/bin/../lib/gcc/arm-none-eabi/4.8.2/../../../../arm-none-eabi/lib/thumb\libstdc++.a(tinfo.o)
 .ARM.extab.text._ZNKSt9type_infoeqERKS_
                0x020381d4        0x0 c:/nds/devkitpro/devkitarm/bin/../lib/gcc/arm-none-eabi/4.8.2/../../../../arm-none-eabi/lib/thumb\libstdc++.a(tinfo.o)
 .ARM.extab.text._ZNKSt9type_info10__do_catchEPKS_PPvj
                0x020381d4        0x0 c:/nds/devkitpro/devkitarm/bin/../lib/gcc/arm-none-eabi/4.8.2/../../../../arm-none-eabi/lib/thumb\libstdc++.a(tinfo.o)
 .ARM.extab.text._ZdlPv
                0x020381d4        0x0 c:/nds/devkitpro/devkitarm/bin/../lib/gcc/arm-none-eabi/4.8.2/../../../../arm-none-eabi/lib/thumb\libstdc++.a(del_op.o)
 .ARM.extab.text._ZN9__gnu_cxx27__verbose_terminate_handlerEv
                0x020381d4       0x34 c:/nds/devkitpro/devkitarm/bin/../lib/gcc/arm-none-eabi/4.8.2/../../../../arm-none-eabi/lib/thumb\libstdc++.a(vterminate.o)
 .ARM.extab.text.__cxa_current_exception_type
                0x02038208        0x0 c:/nds/devkitpro/devkitarm/bin/../lib/gcc/arm-none-eabi/4.8.2/../../../../arm-none-eabi/lib/thumb\libstdc++.a(eh_type.o)
                0x02038208                __exidx_start = .

ARM.exidx       0x02038208      0x130
 *(.ARM.exidx* .gnu.linkonce.armexidx.*)
 .ARM.exidx.text._Znwj
                0x02038208        0x8 c:/nds/devkitpro/devkitarm/bin/../lib/gcc/arm-none-eabi/4.8.2/../../../../arm-none-eabi/lib/thumb\libstdc++.a(new_op.o)
 .ARM.exidx.text._ZN10__cxxabiv1L24__is_gxx_exception_classEPc
                0x02038210        0x8 c:/nds/devkitpro/devkitarm/bin/../lib/gcc/arm-none-eabi/4.8.2/../../../../arm-none-eabi/lib/thumb\libstdc++.a(eh_call.o)
 .ARM.exidx.text.__cxa_call_terminate
                0x02038218        0x0 c:/nds/devkitpro/devkitarm/bin/../lib/gcc/arm-none-eabi/4.8.2/../../../../arm-none-eabi/lib/thumb\libstdc++.a(eh_call.o)
                                  0x8 (size before relaxing)
 .ARM.exidx.text.__cxa_call_unexpected
                0x02038218        0x8 c:/nds/devkitpro/devkitarm/bin/../lib/gcc/arm-none-eabi/4.8.2/../../../../arm-none-eabi/lib/thumb\libstdc++.a(eh_call.o)
 .ARM.exidx.text._ZL12read_sleb128PKhPl
                0x02038220        0x8 c:/nds/devkitpro/devkitarm/bin/../lib/gcc/arm-none-eabi/4.8.2/../../../../arm-none-eabi/lib/thumb\libstdc++.a(eh_personality.o)
 .ARM.exidx.text._ZL28read_encoded_value_with_basehjPKhPj
                0x02038228        0x8 c:/nds/devkitpro/devkitarm/bin/../lib/gcc/arm-none-eabi/4.8.2/../../../../arm-none-eabi/lib/thumb\libstdc++.a(eh_personality.o)
 .ARM.exidx.text._ZL21base_of_encoded_valuehP15_Unwind_Context
                0x02038230        0x8 c:/nds/devkitpro/devkitarm/bin/../lib/gcc/arm-none-eabi/4.8.2/../../../../arm-none-eabi/lib/thumb\libstdc++.a(eh_personality.o)
 .ARM.exidx.text._ZL17parse_lsda_headerP15_Unwind_ContextPKhP16lsda_header_info
                0x02038238        0x8 c:/nds/devkitpro/devkitarm/bin/../lib/gcc/arm-none-eabi/4.8.2/../../../../arm-none-eabi/lib/thumb\libstdc++.a(eh_personality.o)
 .ARM.exidx.text.__gxx_personality_v0
                0x02038240        0x8 c:/nds/devkitpro/devkitarm/bin/../lib/gcc/arm-none-eabi/4.8.2/../../../../arm-none-eabi/lib/thumb\libstdc++.a(eh_personality.o)
 .ARM.exidx.text._ZN10__cxxabiv111__terminateEPFvvE
                0x02038248        0x8 c:/nds/devkitpro/devkitarm/bin/../lib/gcc/arm-none-eabi/4.8.2/../../../../arm-none-eabi/lib/thumb\libstdc++.a(eh_terminate.o)
 .ARM.exidx.text._ZSt9terminatev
                0x02038250        0x8 c:/nds/devkitpro/devkitarm/bin/../lib/gcc/arm-none-eabi/4.8.2/../../../../arm-none-eabi/lib/thumb\libstdc++.a(eh_terminate.o)
 .ARM.exidx.text._ZN10__cxxabiv112__unexpectedEPFvvE
                0x02038258        0x8 c:/nds/devkitpro/devkitarm/bin/../lib/gcc/arm-none-eabi/4.8.2/../../../../arm-none-eabi/lib/thumb\libstdc++.a(eh_terminate.o)
 .ARM.exidx.text._ZSt10unexpectedv
                0x02038260        0x8 c:/nds/devkitpro/devkitarm/bin/../lib/gcc/arm-none-eabi/4.8.2/../../../../arm-none-eabi/lib/thumb\libstdc++.a(eh_terminate.o)
 .ARM.exidx.text._ZSt13set_terminatePFvvE
                0x02038268        0x8 c:/nds/devkitpro/devkitarm/bin/../lib/gcc/arm-none-eabi/4.8.2/../../../../arm-none-eabi/lib/thumb\libstdc++.a(eh_terminate.o)
 .ARM.exidx.text._ZSt14set_unexpectedPFvvE
                0x02038270        0x0 c:/nds/devkitpro/devkitarm/bin/../lib/gcc/arm-none-eabi/4.8.2/../../../../arm-none-eabi/lib/thumb\libstdc++.a(eh_terminate.o)
                                  0x8 (size before relaxing)
 .ARM.exidx.text._ZNSt9exceptionD2Ev
                0x02038270        0x0 c:/nds/devkitpro/devkitarm/bin/../lib/gcc/arm-none-eabi/4.8.2/../../../../arm-none-eabi/lib/thumb\libstdc++.a(eh_exception.o)
                                  0x8 (size before relaxing)
 .ARM.exidx.text._ZNSt13bad_exceptionD2Ev
                0x02038270        0x0 c:/nds/devkitpro/devkitarm/bin/../lib/gcc/arm-none-eabi/4.8.2/../../../../arm-none-eabi/lib/thumb\libstdc++.a(eh_exception.o)
                                  0x8 (size before relaxing)
 .ARM.exidx.text._ZN10__cxxabiv115__forced_unwindD2Ev
                0x02038270        0x0 c:/nds/devkitpro/devkitarm/bin/../lib/gcc/arm-none-eabi/4.8.2/../../../../arm-none-eabi/lib/thumb\libstdc++.a(eh_exception.o)
                                  0x8 (size before relaxing)
 .ARM.exidx.text._ZN10__cxxabiv119__foreign_exceptionD2Ev
                0x02038270        0x0 c:/nds/devkitpro/devkitarm/bin/../lib/gcc/arm-none-eabi/4.8.2/../../../../arm-none-eabi/lib/thumb\libstdc++.a(eh_exception.o)
                                  0x8 (size before relaxing)
 .ARM.exidx.text._ZNKSt9exception4whatEv
                0x02038270        0x0 c:/nds/devkitpro/devkitarm/bin/../lib/gcc/arm-none-eabi/4.8.2/../../../../arm-none-eabi/lib/thumb\libstdc++.a(eh_exception.o)
                                  0x8 (size before relaxing)
 .ARM.exidx.text._ZNKSt13bad_exception4whatEv
                0x02038270        0x0 c:/nds/devkitpro/devkitarm/bin/../lib/gcc/arm-none-eabi/4.8.2/../../../../arm-none-eabi/lib/thumb\libstdc++.a(eh_exception.o)
                                  0x8 (size before relaxing)
 .ARM.exidx.text._ZNSt9exceptionD0Ev
                0x02038270        0x0 c:/nds/devkitpro/devkitarm/bin/../lib/gcc/arm-none-eabi/4.8.2/../../../../arm-none-eabi/lib/thumb\libstdc++.a(eh_exception.o)
                                  0x8 (size before relaxing)
 .ARM.exidx.text._ZNSt13bad_exceptionD0Ev
                0x02038270        0x0 c:/nds/devkitpro/devkitarm/bin/../lib/gcc/arm-none-eabi/4.8.2/../../../../arm-none-eabi/lib/thumb\libstdc++.a(eh_exception.o)
                                  0x8 (size before relaxing)
 .ARM.exidx.text._ZN10__cxxabiv115__forced_unwindD0Ev
                0x02038270        0x0 c:/nds/devkitpro/devkitarm/bin/../lib/gcc/arm-none-eabi/4.8.2/../../../../arm-none-eabi/lib/thumb\libstdc++.a(eh_exception.o)
                                  0x8 (size before relaxing)
 .ARM.exidx.text._ZN10__cxxabiv119__foreign_exceptionD0Ev
                0x02038270        0x0 c:/nds/devkitpro/devkitarm/bin/../lib/gcc/arm-none-eabi/4.8.2/../../../../arm-none-eabi/lib/thumb\libstdc++.a(eh_exception.o)
                                  0x8 (size before relaxing)
 .ARM.exidx.text.__cxa_allocate_exception
                0x02038270        0x0 c:/nds/devkitpro/devkitarm/bin/../lib/gcc/arm-none-eabi/4.8.2/../../../../arm-none-eabi/lib/thumb\libstdc++.a(eh_alloc.o)
                                  0x8 (size before relaxing)
 .ARM.exidx.text.__cxa_free_exception
                0x02038270        0x0 c:/nds/devkitpro/devkitarm/bin/../lib/gcc/arm-none-eabi/4.8.2/../../../../arm-none-eabi/lib/thumb\libstdc++.a(eh_alloc.o)
                                  0x8 (size before relaxing)
 .ARM.exidx.text.__cxa_allocate_dependent_exception
                0x02038270        0x0 c:/nds/devkitpro/devkitarm/bin/../lib/gcc/arm-none-eabi/4.8.2/../../../../arm-none-eabi/lib/thumb\libstdc++.a(eh_alloc.o)
                                  0x8 (size before relaxing)
 .ARM.exidx.text.__cxa_free_dependent_exception
                0x02038270        0x0 c:/nds/devkitpro/devkitarm/bin/../lib/gcc/arm-none-eabi/4.8.2/../../../../arm-none-eabi/lib/thumb\libstdc++.a(eh_alloc.o)
                                  0x8 (size before relaxing)
 .ARM.exidx.text._ZNKSt9bad_alloc4whatEv
                0x02038270        0x0 c:/nds/devkitpro/devkitarm/bin/../lib/gcc/arm-none-eabi/4.8.2/../../../../arm-none-eabi/lib/thumb\libstdc++.a(bad_alloc.o)
                                  0x8 (size before relaxing)
 .ARM.exidx.text._ZNSt9bad_allocD2Ev
                0x02038270        0x0 c:/nds/devkitpro/devkitarm/bin/../lib/gcc/arm-none-eabi/4.8.2/../../../../arm-none-eabi/lib/thumb\libstdc++.a(bad_alloc.o)
                                  0x8 (size before relaxing)
 .ARM.exidx.text._ZNSt9bad_allocD0Ev
                0x02038270        0x0 c:/nds/devkitpro/devkitarm/bin/../lib/gcc/arm-none-eabi/4.8.2/../../../../arm-none-eabi/lib/thumb\libstdc++.a(bad_alloc.o)
                                  0x8 (size before relaxing)
 .ARM.exidx.text._ZNK10__cxxabiv117__class_type_info11__do_upcastEPKS0_PPv
                0x02038270        0x8 c:/nds/devkitpro/devkitarm/bin/../lib/gcc/arm-none-eabi/4.8.2/../../../../arm-none-eabi/lib/thumb\libstdc++.a(class_type_info.o)
 .ARM.exidx.text._ZNK10__cxxabiv117__class_type_info20__do_find_public_srcEiPKvPKS0_S2_
                0x02038278        0x8 c:/nds/devkitpro/devkitarm/bin/../lib/gcc/arm-none-eabi/4.8.2/../../../../arm-none-eabi/lib/thumb\libstdc++.a(class_type_info.o)
 .ARM.exidx.text._ZN10__cxxabiv117__class_type_infoD2Ev
                0x02038280        0x8 c:/nds/devkitpro/devkitarm/bin/../lib/gcc/arm-none-eabi/4.8.2/../../../../arm-none-eabi/lib/thumb\libstdc++.a(class_type_info.o)
 .ARM.exidx.text._ZN10__cxxabiv117__class_type_infoD0Ev
                0x02038288        0x0 c:/nds/devkitpro/devkitarm/bin/../lib/gcc/arm-none-eabi/4.8.2/../../../../arm-none-eabi/lib/thumb\libstdc++.a(class_type_info.o)
                                  0x8 (size before relaxing)
 .ARM.exidx.text._ZNK10__cxxabiv117__class_type_info11__do_upcastEPKS0_PKvRNS0_15__upcast_resultE
                0x02038288        0x8 c:/nds/devkitpro/devkitarm/bin/../lib/gcc/arm-none-eabi/4.8.2/../../../../arm-none-eabi/lib/thumb\libstdc++.a(class_type_info.o)
 .ARM.exidx.text._ZNK10__cxxabiv117__class_type_info10__do_catchEPKSt9type_infoPPvj
                0x02038290        0x8 c:/nds/devkitpro/devkitarm/bin/../lib/gcc/arm-none-eabi/4.8.2/../../../../arm-none-eabi/lib/thumb\libstdc++.a(class_type_info.o)
 .ARM.exidx.text._ZNK10__cxxabiv117__class_type_info12__do_dyncastEiNS0_10__sub_kindEPKS0_PKvS3_S5_RNS0_16__dyncast_resultE
                0x02038298        0x8 c:/nds/devkitpro/devkitarm/bin/../lib/gcc/arm-none-eabi/4.8.2/../../../../arm-none-eabi/lib/thumb\libstdc++.a(class_type_info.o)
 .ARM.exidx.text._ZSt15set_new_handlerPFvvE
                0x020382a0        0x8 c:/nds/devkitpro/devkitarm/bin/../lib/gcc/arm-none-eabi/4.8.2/../../../../arm-none-eabi/lib/thumb\libstdc++.a(new_handler.o)
 .ARM.exidx.text.__cxa_type_match
                0x020382a8        0x8 c:/nds/devkitpro/devkitarm/bin/../lib/gcc/arm-none-eabi/4.8.2/../../../../arm-none-eabi/lib/thumb\libstdc++.a(eh_arm.o)
 .ARM.exidx.text.__cxa_begin_cleanup
                0x020382b0        0x8 c:/nds/devkitpro/devkitarm/bin/../lib/gcc/arm-none-eabi/4.8.2/../../../../arm-none-eabi/lib/thumb\libstdc++.a(eh_arm.o)
 .ARM.exidx.text.__gnu_end_cleanup
                0x020382b8        0x0 c:/nds/devkitpro/devkitarm/bin/../lib/gcc/arm-none-eabi/4.8.2/../../../../arm-none-eabi/lib/thumb\libstdc++.a(eh_arm.o)
                                  0x8 (size before relaxing)
 .ARM.exidx.text._ZL23__gxx_exception_cleanup19_Unwind_Reason_CodeP21_Unwind_Control_Block
                0x020382b8        0x8 c:/nds/devkitpro/devkitarm/bin/../lib/gcc/arm-none-eabi/4.8.2/../../../../arm-none-eabi/lib/thumb\libstdc++.a(eh_throw.o)
 .ARM.exidx.text.__cxa_throw
                0x020382c0        0x8 c:/nds/devkitpro/devkitarm/bin/../lib/gcc/arm-none-eabi/4.8.2/../../../../arm-none-eabi/lib/thumb\libstdc++.a(eh_throw.o)
 .ARM.exidx.text.__cxa_rethrow
                0x020382c8        0x8 c:/nds/devkitpro/devkitarm/bin/../lib/gcc/arm-none-eabi/4.8.2/../../../../arm-none-eabi/lib/thumb\libstdc++.a(eh_throw.o)
 .ARM.exidx.text.__cxa_pure_virtual
                0x020382d0        0x8 c:/nds/devkitpro/devkitarm/bin/../lib/gcc/arm-none-eabi/4.8.2/../../../../arm-none-eabi/lib/thumb\libstdc++.a(pure.o)
 .ARM.exidx.text.__cxa_deleted_virtual
                0x020382d8        0x8 c:/nds/devkitpro/devkitarm/bin/../lib/gcc/arm-none-eabi/4.8.2/../../../../arm-none-eabi/lib/thumb\libstdc++.a(pure.o)
 .ARM.exidx.text.__cxa_get_globals_fast
                0x020382e0        0x8 c:/nds/devkitpro/devkitarm/bin/../lib/gcc/arm-none-eabi/4.8.2/../../../../arm-none-eabi/lib/thumb\libstdc++.a(eh_globals.o)
 .ARM.exidx.text.__cxa_get_globals
                0x020382e8        0x0 c:/nds/devkitpro/devkitarm/bin/../lib/gcc/arm-none-eabi/4.8.2/../../../../arm-none-eabi/lib/thumb\libstdc++.a(eh_globals.o)
                                  0x8 (size before relaxing)
 .ARM.exidx.text.__cxa_get_exception_ptr
                0x020382e8        0x0 c:/nds/devkitpro/devkitarm/bin/../lib/gcc/arm-none-eabi/4.8.2/../../../../arm-none-eabi/lib/thumb\libstdc++.a(eh_catch.o)
                                  0x8 (size before relaxing)
 .ARM.exidx.text.__cxa_begin_catch
                0x020382e8        0x8 c:/nds/devkitpro/devkitarm/bin/../lib/gcc/arm-none-eabi/4.8.2/../../../../arm-none-eabi/lib/thumb\libstdc++.a(eh_catch.o)
 .ARM.exidx.text.__cxa_end_catch
                0x020382f0        0x8 c:/nds/devkitpro/devkitarm/bin/../lib/gcc/arm-none-eabi/4.8.2/../../../../arm-none-eabi/lib/thumb\libstdc++.a(eh_catch.o)
 .ARM.exidx.text._ZSt18uncaught_exceptionv
                0x020382f8        0x8 c:/nds/devkitpro/devkitarm/bin/../lib/gcc/arm-none-eabi/4.8.2/../../../../arm-none-eabi/lib/thumb\libstdc++.a(eh_catch.o)
 .ARM.exidx.text._ZN10__cxxabiv120__si_class_type_infoD2Ev
                0x02038300        0x8 c:/nds/devkitpro/devkitarm/bin/../lib/gcc/arm-none-eabi/4.8.2/../../../../arm-none-eabi/lib/thumb\libstdc++.a(si_class_type_info.o)
 .ARM.exidx.text._ZN10__cxxabiv120__si_class_type_infoD0Ev
                0x02038308        0x0 c:/nds/devkitpro/devkitarm/bin/../lib/gcc/arm-none-eabi/4.8.2/../../../../arm-none-eabi/lib/thumb\libstdc++.a(si_class_type_info.o)
                                  0x8 (size before relaxing)
 .ARM.exidx.text._ZNK10__cxxabiv120__si_class_type_info20__do_find_public_srcEiPKvPKNS_17__class_type_infoES2_
                0x02038308        0x8 c:/nds/devkitpro/devkitarm/bin/../lib/gcc/arm-none-eabi/4.8.2/../../../../arm-none-eabi/lib/thumb\libstdc++.a(si_class_type_info.o)
 .ARM.exidx.text._ZNK10__cxxabiv120__si_class_type_info12__do_dyncastEiNS_17__class_type_info10__sub_kindEPKS1_PKvS4_S6_RNS1_16__dyncast_resultE
                0x02038310        0x8 c:/nds/devkitpro/devkitarm/bin/../lib/gcc/arm-none-eabi/4.8.2/../../../../arm-none-eabi/lib/thumb\libstdc++.a(si_class_type_info.o)
 .ARM.exidx.text._ZNK10__cxxabiv120__si_class_type_info11__do_upcastEPKNS_17__class_type_infoEPKvRNS1_15__upcast_resultE
                0x02038318        0x8 c:/nds/devkitpro/devkitarm/bin/../lib/gcc/arm-none-eabi/4.8.2/../../../../arm-none-eabi/lib/thumb\libstdc++.a(si_class_type_info.o)
 .ARM.exidx.text._ZNSt9type_infoD2Ev
                0x02038320        0x8 c:/nds/devkitpro/devkitarm/bin/../lib/gcc/arm-none-eabi/4.8.2/../../../../arm-none-eabi/lib/thumb\libstdc++.a(tinfo.o)
 .ARM.exidx.text._ZNKSt9type_info14__is_pointer_pEv
                0x02038328        0x0 c:/nds/devkitpro/devkitarm/bin/../lib/gcc/arm-none-eabi/4.8.2/../../../../arm-none-eabi/lib/thumb\libstdc++.a(tinfo.o)
                                  0x8 (size before relaxing)
 .ARM.exidx.text._ZNKSt9type_info15__is_function_pEv
                0x02038328        0x0 c:/nds/devkitpro/devkitarm/bin/../lib/gcc/arm-none-eabi/4.8.2/../../../../arm-none-eabi/lib/thumb\libstdc++.a(tinfo.o)
                                  0x8 (size before relaxing)
 .ARM.exidx.text._ZNKSt9type_info11__do_upcastEPKN10__cxxabiv117__class_type_infoEPPv
                0x02038328        0x0 c:/nds/devkitpro/devkitarm/bin/../lib/gcc/arm-none-eabi/4.8.2/../../../../arm-none-eabi/lib/thumb\libstdc++.a(tinfo.o)
                                  0x8 (size before relaxing)
 .ARM.exidx.text._ZNSt9type_infoD0Ev
                0x02038328        0x0 c:/nds/devkitpro/devkitarm/bin/../lib/gcc/arm-none-eabi/4.8.2/../../../../arm-none-eabi/lib/thumb\libstdc++.a(tinfo.o)
                                  0x8 (size before relaxing)
 .ARM.exidx.text._ZNKSt9type_infoeqERKS_
                0x02038328        0x0 c:/nds/devkitpro/devkitarm/bin/../lib/gcc/arm-none-eabi/4.8.2/../../../../arm-none-eabi/lib/thumb\libstdc++.a(tinfo.o)
                                  0x8 (size before relaxing)
 .ARM.exidx.text._ZNKSt9type_info10__do_catchEPKS_PPvj
                0x02038328        0x0 c:/nds/devkitpro/devkitarm/bin/../lib/gcc/arm-none-eabi/4.8.2/../../../../arm-none-eabi/lib/thumb\libstdc++.a(tinfo.o)
                                  0x8 (size before relaxing)
 .ARM.exidx.text._ZdlPv
                0x02038328        0x0 c:/nds/devkitpro/devkitarm/bin/../lib/gcc/arm-none-eabi/4.8.2/../../../../arm-none-eabi/lib/thumb\libstdc++.a(del_op.o)
                                  0x8 (size before relaxing)
 .ARM.exidx.text._ZN9__gnu_cxx27__verbose_terminate_handlerEv
                0x02038328        0x8 c:/nds/devkitpro/devkitarm/bin/../lib/gcc/arm-none-eabi/4.8.2/../../../../arm-none-eabi/lib/thumb\libstdc++.a(vterminate.o)
 .ARM.exidx.text.__cxa_current_exception_type
                0x02038330        0x8 c:/nds/devkitpro/devkitarm/bin/../lib/gcc/arm-none-eabi/4.8.2/../../../../arm-none-eabi/lib/thumb\libstdc++.a(eh_type.o)
                0x02038338                __exidx_end = .

.rel.dyn        0x02038338        0x0
 .rel.iplt      0x00000000        0x0 c:/nds/devkitpro/devkitarm/bin/../lib/gcc/arm-none-eabi/4.8.2/../../../../arm-none-eabi/lib/thumb/ds_arm9_crt0.o
                0x02038338                . = ALIGN (0x4)
                0x02038338                PROVIDE (__preinit_array_start, .)

.preinit_array
 *(.preinit_array)
                0x02038338                PROVIDE (__preinit_array_end, .)
                0x02038338                PROVIDE (__init_array_start, .)

.init_array     0x02038338        0x4
 *(SORT(.init_array.*))
 *(.init_array)
 .init_array    0x02038338        0x4 c:/nds/devkitpro/devkitarm/bin/../lib/gcc/arm-none-eabi/4.8.2/thumb/crtbegin.o
                0x0203833c                PROVIDE (__init_array_end, .)
                0x0203833c                PROVIDE (__fini_array_start, .)

.fini_array     0x0203833c        0x4
 *(.fini_array)
 .fini_array    0x0203833c        0x4 c:/nds/devkitpro/devkitarm/bin/../lib/gcc/arm-none-eabi/4.8.2/thumb/crtbegin.o
 *(SORT(.fini_array.*))
                0x02038340                PROVIDE (__fini_array_end, .)

.ctors          0x02038340        0x0
 *crtbegin.o(.ctors)
 *(EXCLUDE_FILE(*crtend.o) .ctors)
 *(SORT(.ctors.*))
 *(.ctors)
                0x02038340                . = ALIGN (0x4)

.dtors          0x02038340        0x0
 *crtbegin.o(.dtors)
 *(EXCLUDE_FILE(*crtend.o) .dtors)
 *(SORT(.dtors.*))
 *(.dtors)
                0x02038340                . = ALIGN (0x4)

.eh_frame       0x02038340        0x4
 *(.eh_frame)
 .eh_frame      0x02038340        0x0 c:/nds/devkitpro/devkitarm/bin/../lib/gcc/arm-none-eabi/4.8.2/thumb/crtbegin.o
 .eh_frame      0x02038340        0x4 c:/nds/devkitpro/devkitarm/bin/../lib/gcc/arm-none-eabi/4.8.2/thumb/crtend.o
                0x02038344                . = ALIGN (0x4)

.gcc_except_table
                0x02038344        0x0
 *(.gcc_except_table)
                0x02038344                . = ALIGN (0x4)

.jcr            0x02038344        0x4
 *(.jcr)
 .jcr           0x02038344        0x0 c:/nds/devkitpro/devkitarm/bin/../lib/gcc/arm-none-eabi/4.8.2/thumb/crtbegin.o
 .jcr           0x02038344        0x4 c:/nds/devkitpro/devkitarm/bin/../lib/gcc/arm-none-eabi/4.8.2/thumb/crtend.o

.got
 *(.got.plt)
 *(.got)
 *(.rel.got)

.ewram          0x02038348        0x0
                0x02038348                __ewram_start = ABSOLUTE (.)
 *(.ewram)
 *ewram.*(.text)
                0x02038348                . = ALIGN (0x4)

.data           0x02038348     0x1bec
                0x02038348                __data_start = ABSOLUTE (.)
 *(.data)
 .data          0x02038348        0x0 c:/nds/devkitpro/devkitarm/bin/../lib/gcc/arm-none-eabi/4.8.2/../../../../arm-none-eabi/lib/thumb/ds_arm9_crt0.o
 .data          0x02038348        0x0 c:/nds/devkitpro/devkitarm/bin/../lib/gcc/arm-none-eabi/4.8.2/thumb/crti.o
 .data          0x02038348        0x4 c:/nds/devkitpro/devkitarm/bin/../lib/gcc/arm-none-eabi/4.8.2/thumb/crtbegin.o
                0x02038348                __dso_handle
 .data          0x0203834c        0x1 Background.o
                0x0203834c                CBackground::MAX_LAYER_BACKGROUND
 .data          0x0203834d        0x0 Engine.o
 .data          0x0203834d        0x0 Input.o
 .data          0x0203834d        0x1 Menu.o
                0x0203834d                CMenu::MAX_LAYER_MENU
 .data          0x0203834e        0x0 Palette.o
 .data          0x0203834e        0x3 Sprite.o
                0x0203834e                CSprite::MAX_ID_SPRITE_RAM
                0x0203834f                CSprite::MAX_ID_SPRITE_VRAM
                0x02038350                CSprite::MAX_ID_SPRITE_SCREEN
 .data          0x02038351        0x1 Text.o
                0x02038351                CText::MAX_LAYER_TEXT
 .data          0x02038352        0x0 main.o
 .data          0x02038352        0x0 c:/nds/Projects/Tutoriales/Tutorial1MenuInicial/nflib/lib\libnflib.a(nf_2d.o)
 .data          0x02038352        0x0 c:/nds/Projects/Tutoriales/Tutorial1MenuInicial/nflib/lib\libnflib.a(nf_3d.o)
 .data          0x02038352        0x0 c:/nds/Projects/Tutoriales/Tutorial1MenuInicial/nflib/lib\libnflib.a(nf_basic.o)
 .data          0x02038352        0x0 c:/nds/Projects/Tutoriales/Tutorial1MenuInicial/nflib/lib\libnflib.a(nf_sprite256.o)
 .data          0x02038352        0x0 c:/nds/Projects/Tutoriales/Tutorial1MenuInicial/nflib/lib\libnflib.a(nf_sprite3d.o)
 .data          0x02038352        0x0 c:/nds/Projects/Tutoriales/Tutorial1MenuInicial/nflib/lib\libnflib.a(nf_text.o)
 .data          0x02038352        0x0 c:/nds/Projects/Tutoriales/Tutorial1MenuInicial/nflib/lib\libnflib.a(nf_tiledbg.o)
 *fill*         0x02038352        0x2 ff
 .data          0x02038354       0x70 c:/nds/devkitPro/libnds/lib\libfilesystem.a(nitrofs.o)
                0x02038358                syspaths
                0x02038360                nitroFSdevoptab
 .data          0x020383c4        0x0 c:/nds/devkitPro/libnds/lib\libfat.a(libfat.o)
 .data          0x020383c4        0x0 c:/nds/devkitPro/libnds/lib\libfat.a(partition.o)
 .data          0x020383c4        0x0 c:/nds/devkitPro/libnds/lib\libfat.a(cache.o)
 .data          0x020383c4        0x0 c:/nds/devkitPro/libnds/lib\libfat.a(directory.o)
 .data          0x020383c4        0x0 c:/nds/devkitPro/libnds/lib\libfat.a(disc.o)
 .data          0x020383c4        0x0 c:/nds/devkitPro/libnds/lib\libfat.a(fatdir.o)
 .data          0x020383c4        0x0 c:/nds/devkitPro/libnds/lib\libfat.a(fatfile.o)
 .data          0x020383c4        0x0 c:/nds/devkitPro/libnds/lib\libfat.a(file_allocation_table.o)
 .data          0x020383c4        0x0 c:/nds/devkitPro/libnds/lib\libfat.a(filetime.o)
 .data          0x020383c4        0x0 c:/nds/devkitPro/libnds/lib\libfat.a(lock.o)
 .data          0x020383c4       0x64 c:/nds/devkitPro/libnds/lib\libnds9.a(console.o)
                0x020383c4                currentConsole
                0x020383c8                defaultConsole
 .data          0x02038428        0x3 c:/nds/devkitPro/libnds/lib\libnds9.a(keys.o)
 *fill*         0x0203842b        0x1 ff
 .data          0x0203842c       0x30 c:/nds/devkitPro/libnds/lib\libnds9.a(sprite.o)
                0x0203842c                oamMain
                0x02038444                oamSub
 .data          0x0203845c        0x0 c:/nds/devkitPro/libnds/lib\libnds9.a(sprite_alloc.o)
 .data          0x0203845c        0x0 c:/nds/devkitPro/libnds/lib\libnds9.a(trig.o)
 .data          0x0203845c        0x0 c:/nds/devkitPro/libnds/lib\libnds9.a(video.o)
 .data          0x0203845c        0x4 c:/nds/devkitPro/libnds/lib\libnds9.a(videoGL.o)
 .data          0x02038460        0x4 c:/nds/devkitPro/libnds/lib\libnds9.a(dldi.o)
                0x02038460                io_dldi_data
 .data          0x02038464        0x0 c:/nds/devkitPro/libnds/lib\libnds9.a(dsi_sd.o)
 .data          0x02038464        0x0 c:/nds/devkitPro/libnds/lib\libnds9.a(initSystem.o)
 .data          0x02038464        0x0 c:/nds/devkitPro/libnds/lib\libnds9.a(card.o)
 .data          0x02038464       0x10 c:/nds/devkitPro/libnds/lib\libnds9.a(fifosystem.o)
                0x02038464                fifo_buffer_free
                0x02038468                fifo_freewords
                0x0203846c                fifo_send_queue
                0x02038470                fifo_receive_queue
 .data          0x02038474        0x0 c:/nds/devkitPro/libnds/lib\libnds9.a(interrupts.o)
 .data          0x02038474        0x0 c:/nds/devkitPro/libnds/lib\libnds9.a(libnds_exit.arm.o)
 .data          0x02038474        0x0 c:/nds/devkitPro/libnds/lib\libnds9.a(dcache.o)
 .data          0x02038474        0x0 c:/nds/devkitPro/libnds/lib\libnds9.a(dldi_stub.o)
 .data          0x02038474        0x0 c:/nds/devkitPro/libnds/lib\libnds9.a(mpu_setup.o)
 .data          0x02038474        0x0 c:/nds/devkitPro/libnds/lib\libnds9.a(biosCalls.o)
 .data          0x02038474        0x0 c:/nds/devkitPro/libnds/lib\libnds9.a(debugprint.o)
 .data          0x02038474        0x0 c:/nds/devkitPro/libnds/lib\libnds9.a(interruptDispatcher.o)
 .data          0x02038474        0x0 c:/nds/devkitPro/libnds/lib\libnds9.a(swiSoftReset.o)
 .data          0x02038474        0x0 c:/nds/devkitPro/libnds/lib\libnds9.a(default_font.bin.o)
 .data          0x02038474       0x60 c:/nds/devkitPro/libnds/lib\libnds9.a(background.o)
                0x02038474                bgScrollTable
                0x02038494                bgTransform
                0x020384b4                bgControl
 .data          0x020384d4        0x0 c:/nds/devkitPro/libnds/lib\libnds9.a(dynamicArray.o)
 .data          0x020384d4        0x0 c:/nds/devkitPro/libnds/lib\libnds9.a(system.o)
 .data          0x020384d4        0x0 c:/nds/devkitpro/devkitarm/bin/../lib/gcc/arm-none-eabi/4.8.2/../../../../arm-none-eabi/lib/thumb\libstdc++.a(new_op.o)
 .data          0x020384d4        0x0 c:/nds/devkitpro/devkitarm/bin/../lib/gcc/arm-none-eabi/4.8.2/../../../../arm-none-eabi/lib/thumb\libstdc++.a(eh_call.o)
 .data          0x020384d4        0x0 c:/nds/devkitpro/devkitarm/bin/../lib/gcc/arm-none-eabi/4.8.2/../../../../arm-none-eabi/lib/thumb\libstdc++.a(eh_personality.o)
 .data          0x020384d4        0x0 c:/nds/devkitpro/devkitarm/bin/../lib/gcc/arm-none-eabi/4.8.2/../../../../arm-none-eabi/lib/thumb\libstdc++.a(eh_terminate.o)
 .data          0x020384d4        0x0 c:/nds/devkitpro/devkitarm/bin/../lib/gcc/arm-none-eabi/4.8.2/../../../../arm-none-eabi/lib/thumb\libstdc++.a(eh_exception.o)
 .data          0x020384d4        0x0 c:/nds/devkitpro/devkitarm/bin/../lib/gcc/arm-none-eabi/4.8.2/../../../../arm-none-eabi/lib/thumb\libstdc++.a(eh_alloc.o)
 .data          0x020384d4        0x0 c:/nds/devkitpro/devkitarm/bin/../lib/gcc/arm-none-eabi/4.8.2/../../../../arm-none-eabi/lib/thumb\libstdc++.a(bad_alloc.o)
 .data          0x020384d4        0x0 c:/nds/devkitpro/devkitarm/bin/../lib/gcc/arm-none-eabi/4.8.2/../../../../arm-none-eabi/lib/thumb\libstdc++.a(class_type_info.o)
 .data          0x020384d4        0x0 c:/nds/devkitpro/devkitarm/bin/../lib/gcc/arm-none-eabi/4.8.2/../../../../arm-none-eabi/lib/thumb\libstdc++.a(new_handler.o)
 .data          0x020384d4        0x0 c:/nds/devkitpro/devkitarm/bin/../lib/gcc/arm-none-eabi/4.8.2/../../../../arm-none-eabi/lib/thumb\libstdc++.a(eh_arm.o)
 .data          0x020384d4        0x0 c:/nds/devkitpro/devkitarm/bin/../lib/gcc/arm-none-eabi/4.8.2/../../../../arm-none-eabi/lib/thumb\libstdc++.a(eh_throw.o)
 .data          0x020384d4        0x0 c:/nds/devkitpro/devkitarm/bin/../lib/gcc/arm-none-eabi/4.8.2/../../../../arm-none-eabi/lib/thumb\libstdc++.a(pure.o)
 .data          0x020384d4        0x0 c:/nds/devkitpro/devkitarm/bin/../lib/gcc/arm-none-eabi/4.8.2/../../../../arm-none-eabi/lib/thumb\libstdc++.a(eh_globals.o)
 .data          0x020384d4        0x0 c:/nds/devkitpro/devkitarm/bin/../lib/gcc/arm-none-eabi/4.8.2/../../../../arm-none-eabi/lib/thumb\libstdc++.a(eh_catch.o)
 .data          0x020384d4        0x0 c:/nds/devkitpro/devkitarm/bin/../lib/gcc/arm-none-eabi/4.8.2/../../../../arm-none-eabi/lib/thumb\libstdc++.a(si_class_type_info.o)
 .data          0x020384d4        0x0 c:/nds/devkitpro/devkitarm/bin/../lib/gcc/arm-none-eabi/4.8.2/../../../../arm-none-eabi/lib/thumb\libstdc++.a(eh_unex_handler.o)
 .data          0x020384d4        0x0 c:/nds/devkitpro/devkitarm/bin/../lib/gcc/arm-none-eabi/4.8.2/../../../../arm-none-eabi/lib/thumb\libstdc++.a(tinfo.o)
 .data          0x020384d4        0x0 c:/nds/devkitpro/devkitarm/bin/../lib/gcc/arm-none-eabi/4.8.2/../../../../arm-none-eabi/lib/thumb\libstdc++.a(eh_term_handler.o)
 .data          0x020384d4        0x0 c:/nds/devkitpro/devkitarm/bin/../lib/gcc/arm-none-eabi/4.8.2/../../../../arm-none-eabi/lib/thumb\libstdc++.a(del_op.o)
 .data          0x020384d4        0x0 c:/nds/devkitpro/devkitarm/bin/../lib/gcc/arm-none-eabi/4.8.2/../../../../arm-none-eabi/lib/thumb\libstdc++.a(vterminate.o)
 .data          0x020384d4        0x0 c:/nds/devkitpro/devkitarm/bin/../lib/gcc/arm-none-eabi/4.8.2/../../../../arm-none-eabi/lib/thumb\libstdc++.a(eh_type.o)
 .data          0x020384d4        0x0 c:/nds/devkitpro/devkitarm/bin/../lib/gcc/arm-none-eabi/4.8.2/../../../../arm-none-eabi/lib/thumb\libstdc++.a(cp-demangle.o)
 .data          0x020384d4        0x0 c:/nds/devkitpro/devkitarm/bin/../lib/gcc/arm-none-eabi/4.8.2/thumb\libgcc.a(_udivsi3.o)
 .data          0x020384d4        0x0 c:/nds/devkitpro/devkitarm/bin/../lib/gcc/arm-none-eabi/4.8.2/thumb\libgcc.a(_divsi3.o)
 .data          0x020384d4        0x0 c:/nds/devkitpro/devkitarm/bin/../lib/gcc/arm-none-eabi/4.8.2/thumb\libgcc.a(_dvmd_tls.o)
 .data          0x020384d4        0x0 c:/nds/devkitpro/devkitarm/bin/../lib/gcc/arm-none-eabi/4.8.2/thumb\libgcc.a(_muldi3.o)
 .data          0x020384d4        0x0 c:/nds/devkitpro/devkitarm/bin/../lib/gcc/arm-none-eabi/4.8.2/thumb\libgcc.a(unwind-arm.o)
 .data          0x020384d4        0x0 c:/nds/devkitpro/devkitarm/bin/../lib/gcc/arm-none-eabi/4.8.2/thumb\libgcc.a(libunwind.o)
 .data          0x020384d4        0x0 c:/nds/devkitpro/devkitarm/bin/../lib/gcc/arm-none-eabi/4.8.2/thumb\libgcc.a(pr-support.o)
 .data          0x020384d4        0x0 c:/nds/devkitpro/devkitarm/bin/../lib/gcc/arm-none-eabi/4.8.2/../../../../arm-none-eabi/lib/thumb\libg.a(lib_a-abort.o)
 .data          0x020384d4        0x0 c:/nds/devkitpro/devkitarm/bin/../lib/gcc/arm-none-eabi/4.8.2/../../../../arm-none-eabi/lib/thumb\libg.a(lib_a-bsearch.o)
 .data          0x020384d4        0x0 c:/nds/devkitpro/devkitarm/bin/../lib/gcc/arm-none-eabi/4.8.2/../../../../arm-none-eabi/lib/thumb\libg.a(lib_a-calloc.o)
 .data          0x020384d4        0x0 c:/nds/devkitpro/devkitarm/bin/../lib/gcc/arm-none-eabi/4.8.2/../../../../arm-none-eabi/lib/thumb\libg.a(lib_a-callocr.o)
 .data          0x020384d4        0x4 c:/nds/devkitpro/devkitarm/bin/../lib/gcc/arm-none-eabi/4.8.2/../../../../arm-none-eabi/lib/thumb\libg.a(lib_a-ctype_.o)
                0x020384d4                __ctype_ptr__
 .data          0x020384d8        0x0 c:/nds/devkitpro/devkitarm/bin/../lib/gcc/arm-none-eabi/4.8.2/../../../../arm-none-eabi/lib/thumb\libg.a(lib_a-fclose.o)
 .data          0x020384d8        0x0 c:/nds/devkitpro/devkitarm/bin/../lib/gcc/arm-none-eabi/4.8.2/../../../../arm-none-eabi/lib/thumb\libg.a(lib_a-fflush.o)
 .data          0x020384d8        0x0 c:/nds/devkitpro/devkitarm/bin/../lib/gcc/arm-none-eabi/4.8.2/../../../../arm-none-eabi/lib/thumb\libg.a(lib_a-findfp.o)
 .data          0x020384d8        0x0 c:/nds/devkitpro/devkitarm/bin/../lib/gcc/arm-none-eabi/4.8.2/../../../../arm-none-eabi/lib/thumb\libg.a(lib_a-fopen.o)
 .data          0x020384d8        0x0 c:/nds/devkitpro/devkitarm/bin/../lib/gcc/arm-none-eabi/4.8.2/../../../../arm-none-eabi/lib/thumb\libg.a(lib_a-fputc.o)
 .data          0x020384d8        0x0 c:/nds/devkitpro/devkitarm/bin/../lib/gcc/arm-none-eabi/4.8.2/../../../../arm-none-eabi/lib/thumb\libg.a(lib_a-fputs.o)
 .data          0x020384d8        0x0 c:/nds/devkitpro/devkitarm/bin/../lib/gcc/arm-none-eabi/4.8.2/../../../../arm-none-eabi/lib/thumb\libg.a(lib_a-fread.o)
 .data          0x020384d8        0x0 c:/nds/devkitpro/devkitarm/bin/../lib/gcc/arm-none-eabi/4.8.2/../../../../arm-none-eabi/lib/thumb\libg.a(lib_a-freer.o)
 .data          0x020384d8        0x0 c:/nds/devkitpro/devkitarm/bin/../lib/gcc/arm-none-eabi/4.8.2/../../../../arm-none-eabi/lib/thumb\libg.a(lib_a-fseek.o)
 .data          0x020384d8        0x0 c:/nds/devkitpro/devkitarm/bin/../lib/gcc/arm-none-eabi/4.8.2/../../../../arm-none-eabi/lib/thumb\libg.a(lib_a-fseeko.o)
 .data          0x020384d8        0x0 c:/nds/devkitpro/devkitarm/bin/../lib/gcc/arm-none-eabi/4.8.2/../../../../arm-none-eabi/lib/thumb\libg.a(lib_a-ftell.o)
 .data          0x020384d8        0x0 c:/nds/devkitpro/devkitarm/bin/../lib/gcc/arm-none-eabi/4.8.2/../../../../arm-none-eabi/lib/thumb\libg.a(lib_a-ftello.o)
 .data          0x020384d8        0x0 c:/nds/devkitpro/devkitarm/bin/../lib/gcc/arm-none-eabi/4.8.2/../../../../arm-none-eabi/lib/thumb\libg.a(lib_a-fvwrite.o)
 .data          0x020384d8        0x0 c:/nds/devkitpro/devkitarm/bin/../lib/gcc/arm-none-eabi/4.8.2/../../../../arm-none-eabi/lib/thumb\libg.a(lib_a-fwalk.o)
 .data          0x020384d8        0x0 c:/nds/devkitpro/devkitarm/bin/../lib/gcc/arm-none-eabi/4.8.2/../../../../arm-none-eabi/lib/thumb\libg.a(lib_a-fwrite.o)
 .data          0x020384d8      0x430 c:/nds/devkitpro/devkitarm/bin/../lib/gcc/arm-none-eabi/4.8.2/../../../../arm-none-eabi/lib/thumb\libg.a(lib_a-impure.o)
                0x020384d8                _impure_ptr
 .data          0x02038908        0x0 c:/nds/devkitpro/devkitarm/bin/../lib/gcc/arm-none-eabi/4.8.2/../../../../arm-none-eabi/lib/thumb\libg.a(lib_a-init.o)
 .data          0x02038908        0x0 c:/nds/devkitpro/devkitarm/bin/../lib/gcc/arm-none-eabi/4.8.2/../../../../arm-none-eabi/lib/thumb\libg.a(lib_a-iprintf.o)
 .data          0x02038908        0x0 c:/nds/devkitpro/devkitarm/bin/../lib/gcc/arm-none-eabi/4.8.2/../../../../arm-none-eabi/lib/thumb\libg.a(lib_a-lcltime_r.o)
 .data          0x02038908      0x17c c:/nds/devkitpro/devkitarm/bin/../lib/gcc/arm-none-eabi/4.8.2/../../../../arm-none-eabi/lib/thumb\libg.a(lib_a-locale.o)
                0x02038908                __default_locale
                0x02038a28                __mb_cur_max
 .data          0x02038a84        0x0 c:/nds/devkitpro/devkitarm/bin/../lib/gcc/arm-none-eabi/4.8.2/../../../../arm-none-eabi/lib/thumb\libg.a(lib_a-makebuf.o)
 .data          0x02038a84        0x0 c:/nds/devkitpro/devkitarm/bin/../lib/gcc/arm-none-eabi/4.8.2/../../../../arm-none-eabi/lib/thumb\libg.a(lib_a-malloc.o)
 .data          0x02038a84      0x410 c:/nds/devkitpro/devkitarm/bin/../lib/gcc/arm-none-eabi/4.8.2/../../../../arm-none-eabi/lib/thumb\libg.a(lib_a-mallocr.o)
                0x02038a84                __malloc_av_
                0x02038e8c                __malloc_sbrk_base
                0x02038e90                __malloc_trim_threshold
 .data          0x02038e94        0x0 c:/nds/devkitpro/devkitarm/bin/../lib/gcc/arm-none-eabi/4.8.2/../../../../arm-none-eabi/lib/thumb\libg.a(lib_a-mbrtowc.o)
 .data          0x02038e94        0x0 c:/nds/devkitpro/devkitarm/bin/../lib/gcc/arm-none-eabi/4.8.2/../../../../arm-none-eabi/lib/thumb\libg.a(lib_a-mbsrtowcs.o)
 .data          0x02038e94        0x4 c:/nds/devkitpro/devkitarm/bin/../lib/gcc/arm-none-eabi/4.8.2/../../../../arm-none-eabi/lib/thumb\libg.a(lib_a-mbtowc_r.o)
                0x02038e94                __mbtowc
 .data          0x02038e98        0x0 c:/nds/devkitpro/devkitarm/bin/../lib/gcc/arm-none-eabi/4.8.2/../../../../arm-none-eabi/lib/thumb\libg.a(lib_a-memchr-stub.o)
 .data          0x02038e98        0x0 c:/nds/devkitpro/devkitarm/bin/../lib/gcc/arm-none-eabi/4.8.2/../../../../arm-none-eabi/lib/thumb\libg.a(lib_a-memcmp.o)
 .data          0x02038e98        0x0 c:/nds/devkitpro/devkitarm/bin/../lib/gcc/arm-none-eabi/4.8.2/../../../../arm-none-eabi/lib/thumb\libg.a(lib_a-memcpy-stub.o)
 .data          0x02038e98        0x0 c:/nds/devkitpro/devkitarm/bin/../lib/gcc/arm-none-eabi/4.8.2/../../../../arm-none-eabi/lib/thumb\libg.a(lib_a-memmove.o)
 .data          0x02038e98        0x0 c:/nds/devkitpro/devkitarm/bin/../lib/gcc/arm-none-eabi/4.8.2/../../../../arm-none-eabi/lib/thumb\libg.a(lib_a-memset.o)
 .data          0x02038e98        0x0 c:/nds/devkitpro/devkitarm/bin/../lib/gcc/arm-none-eabi/4.8.2/../../../../arm-none-eabi/lib/thumb\libg.a(lib_a-mktime.o)
 .data          0x02038e98        0x0 c:/nds/devkitpro/devkitarm/bin/../lib/gcc/arm-none-eabi/4.8.2/../../../../arm-none-eabi/lib/thumb\libg.a(lib_a-mktm_r.o)
 .data          0x02038e98        0x0 c:/nds/devkitpro/devkitarm/bin/../lib/gcc/arm-none-eabi/4.8.2/../../../../arm-none-eabi/lib/thumb\libg.a(lib_a-mlock.o)
 .data          0x02038e98        0x0 c:/nds/devkitpro/devkitarm/bin/../lib/gcc/arm-none-eabi/4.8.2/../../../../arm-none-eabi/lib/thumb\libg.a(lib_a-putc.o)
 .data          0x02038e98        0x0 c:/nds/devkitpro/devkitarm/bin/../lib/gcc/arm-none-eabi/4.8.2/../../../../arm-none-eabi/lib/thumb\libg.a(lib_a-realloc.o)
 .data          0x02038e98        0x0 c:/nds/devkitpro/devkitarm/bin/../lib/gcc/arm-none-eabi/4.8.2/../../../../arm-none-eabi/lib/thumb\libg.a(lib_a-reallocr.o)
 .data          0x02038e98        0x0 c:/nds/devkitpro/devkitarm/bin/../lib/gcc/arm-none-eabi/4.8.2/../../../../arm-none-eabi/lib/thumb\libg.a(lib_a-refill.o)
 .data          0x02038e98        0x0 c:/nds/devkitpro/devkitarm/bin/../lib/gcc/arm-none-eabi/4.8.2/../../../../arm-none-eabi/lib/thumb\libg.a(lib_a-rewind.o)
 .data          0x02038e98        0x0 c:/nds/devkitpro/devkitarm/bin/../lib/gcc/arm-none-eabi/4.8.2/../../../../arm-none-eabi/lib/thumb\libg.a(lib_a-setvbuf.o)
 .data          0x02038e98        0x0 c:/nds/devkitpro/devkitarm/bin/../lib/gcc/arm-none-eabi/4.8.2/../../../../arm-none-eabi/lib/thumb\libg.a(lib_a-signal.o)
 .data          0x02038e98        0x0 c:/nds/devkitpro/devkitarm/bin/../lib/gcc/arm-none-eabi/4.8.2/../../../../arm-none-eabi/lib/thumb\libg.a(lib_a-siscanf.o)
 .data          0x02038e98        0x0 c:/nds/devkitpro/devkitarm/bin/../lib/gcc/arm-none-eabi/4.8.2/../../../../arm-none-eabi/lib/thumb\libg.a(lib_a-sprintf.o)
 .data          0x02038e98        0x0 c:/nds/devkitpro/devkitarm/bin/../lib/gcc/arm-none-eabi/4.8.2/../../../../arm-none-eabi/lib/thumb\libg.a(lib_a-stdio.o)
 .data          0x02038e98        0x0 c:/nds/devkitpro/devkitarm/bin/../lib/gcc/arm-none-eabi/4.8.2/../../../../arm-none-eabi/lib/thumb\libg.a(lib_a-stpcpy.o)
 .data          0x02038e98        0x0 c:/nds/devkitpro/devkitarm/bin/../lib/gcc/arm-none-eabi/4.8.2/../../../../arm-none-eabi/lib/thumb\libg.a(lib_a-strcasecmp.o)
 .data          0x02038e98        0x0 c:/nds/devkitpro/devkitarm/bin/../lib/gcc/arm-none-eabi/4.8.2/../../../../arm-none-eabi/lib/thumb\libg.a(lib_a-strcat.o)
 .data          0x02038e98        0x0 c:/nds/devkitpro/devkitarm/bin/../lib/gcc/arm-none-eabi/4.8.2/../../../../arm-none-eabi/lib/thumb\libg.a(lib_a-strchr.o)
 .data          0x02038e98        0x0 c:/nds/devkitpro/devkitarm/bin/../lib/gcc/arm-none-eabi/4.8.2/../../../../arm-none-eabi/lib/thumb\libg.a(lib_a-strcmp.o)
 .data          0x02038e98        0x0 c:/nds/devkitpro/devkitarm/bin/../lib/gcc/arm-none-eabi/4.8.2/../../../../arm-none-eabi/lib/thumb\libg.a(lib_a-strcpy.o)
 .data          0x02038e98        0x0 c:/nds/devkitpro/devkitarm/bin/../lib/gcc/arm-none-eabi/4.8.2/../../../../arm-none-eabi/lib/thumb\libg.a(lib_a-strdup.o)
 .data          0x02038e98        0x0 c:/nds/devkitpro/devkitarm/bin/../lib/gcc/arm-none-eabi/4.8.2/../../../../arm-none-eabi/lib/thumb\libg.a(lib_a-strdup_r.o)
 .data          0x02038e98        0x0 c:/nds/devkitpro/devkitarm/bin/../lib/gcc/arm-none-eabi/4.8.2/../../../../arm-none-eabi/lib/thumb\libg.a(lib_a-strlcpy.o)
 .data          0x02038e98        0x0 c:/nds/devkitpro/devkitarm/bin/../lib/gcc/arm-none-eabi/4.8.2/../../../../arm-none-eabi/lib/thumb\libg.a(lib_a-strlen.o)
 .data          0x02038e98        0x0 c:/nds/devkitpro/devkitarm/bin/../lib/gcc/arm-none-eabi/4.8.2/../../../../arm-none-eabi/lib/thumb\libg.a(lib_a-strncasecmp.o)
 .data          0x02038e98        0x0 c:/nds/devkitpro/devkitarm/bin/../lib/gcc/arm-none-eabi/4.8.2/../../../../arm-none-eabi/lib/thumb\libg.a(lib_a-strncmp.o)
 .data          0x02038e98        0x0 c:/nds/devkitpro/devkitarm/bin/../lib/gcc/arm-none-eabi/4.8.2/../../../../arm-none-eabi/lib/thumb\libg.a(lib_a-strncpy.o)
 .data          0x02038e98        0x0 c:/nds/devkitpro/devkitarm/bin/../lib/gcc/arm-none-eabi/4.8.2/../../../../arm-none-eabi/lib/thumb\libg.a(lib_a-strnlen.o)
 .data          0x02038e98        0x0 c:/nds/devkitpro/devkitarm/bin/../lib/gcc/arm-none-eabi/4.8.2/../../../../arm-none-eabi/lib/thumb\libg.a(lib_a-strpbrk.o)
 .data          0x02038e98        0x0 c:/nds/devkitpro/devkitarm/bin/../lib/gcc/arm-none-eabi/4.8.2/../../../../arm-none-eabi/lib/thumb\libg.a(lib_a-strrchr.o)
 .data          0x02038e98        0x0 c:/nds/devkitpro/devkitarm/bin/../lib/gcc/arm-none-eabi/4.8.2/../../../../arm-none-eabi/lib/thumb\libg.a(lib_a-strtol.o)
 .data          0x02038e98        0x0 c:/nds/devkitpro/devkitarm/bin/../lib/gcc/arm-none-eabi/4.8.2/../../../../arm-none-eabi/lib/thumb\libg.a(lib_a-svfiscanf.o)
 .data          0x02038e98        0x0 c:/nds/devkitpro/devkitarm/bin/../lib/gcc/arm-none-eabi/4.8.2/../../../../arm-none-eabi/lib/thumb\libg.a(lib_a-svfprintf.o)
 .data          0x02038e98        0x0 c:/nds/devkitpro/devkitarm/bin/../lib/gcc/arm-none-eabi/4.8.2/../../../../arm-none-eabi/lib/thumb\libg.a(lib_a-sysclose.o)
 .data          0x02038e98        0x0 c:/nds/devkitpro/devkitarm/bin/../lib/gcc/arm-none-eabi/4.8.2/../../../../arm-none-eabi/lib/thumb\libg.a(lib_a-syslseek.o)
 .data          0x02038e98        0x0 c:/nds/devkitpro/devkitarm/bin/../lib/gcc/arm-none-eabi/4.8.2/../../../../arm-none-eabi/lib/thumb\libg.a(lib_a-sysopen.o)
 .data          0x02038e98        0x0 c:/nds/devkitpro/devkitarm/bin/../lib/gcc/arm-none-eabi/4.8.2/../../../../arm-none-eabi/lib/thumb\libg.a(lib_a-sysread.o)
 .data          0x02038e98        0x0 c:/nds/devkitpro/devkitarm/bin/../lib/gcc/arm-none-eabi/4.8.2/../../../../arm-none-eabi/lib/thumb\libg.a(lib_a-syswrite.o)
 .data          0x02038e98        0x0 c:/nds/devkitpro/devkitarm/bin/../lib/gcc/arm-none-eabi/4.8.2/../../../../arm-none-eabi/lib/thumb\libg.a(lib_a-time.o)
 .data          0x02038e98        0x0 c:/nds/devkitpro/devkitarm/bin/../lib/gcc/arm-none-eabi/4.8.2/../../../../arm-none-eabi/lib/thumb\libg.a(lib_a-towlower.o)
 .data          0x02038e98        0x0 c:/nds/devkitpro/devkitarm/bin/../lib/gcc/arm-none-eabi/4.8.2/../../../../arm-none-eabi/lib/thumb\libg.a(lib_a-towupper.o)
 .data          0x02038e98        0x0 c:/nds/devkitpro/devkitarm/bin/../lib/gcc/arm-none-eabi/4.8.2/../../../../arm-none-eabi/lib/thumb\libg.a(lib_a-tzlock.o)
 .data          0x02038e98        0x8 c:/nds/devkitpro/devkitarm/bin/../lib/gcc/arm-none-eabi/4.8.2/../../../../arm-none-eabi/lib/thumb\libg.a(lib_a-tzvars.o)
                0x02038e98                _tzname
 .data          0x02038ea0        0x0 c:/nds/devkitpro/devkitarm/bin/../lib/gcc/arm-none-eabi/4.8.2/../../../../arm-none-eabi/lib/thumb\libg.a(lib_a-ungetc.o)
 .data          0x02038ea0        0x0 c:/nds/devkitpro/devkitarm/bin/../lib/gcc/arm-none-eabi/4.8.2/../../../../arm-none-eabi/lib/thumb\libg.a(lib_a-vfiprintf.o)
 .data          0x02038ea0        0x0 c:/nds/devkitpro/devkitarm/bin/../lib/gcc/arm-none-eabi/4.8.2/../../../../arm-none-eabi/lib/thumb\libg.a(lib_a-wbuf.o)
 .data          0x02038ea0        0x0 c:/nds/devkitpro/devkitarm/bin/../lib/gcc/arm-none-eabi/4.8.2/../../../../arm-none-eabi/lib/thumb\libg.a(lib_a-wcrtomb.o)
 .data          0x02038ea0        0x0 c:/nds/devkitpro/devkitarm/bin/../lib/gcc/arm-none-eabi/4.8.2/../../../../arm-none-eabi/lib/thumb\libg.a(lib_a-wcsrtombs.o)
 .data          0x02038ea0        0x0 c:/nds/devkitpro/devkitarm/bin/../lib/gcc/arm-none-eabi/4.8.2/../../../../arm-none-eabi/lib/thumb\libg.a(lib_a-wctob.o)
 .data          0x02038ea0        0x4 c:/nds/devkitpro/devkitarm/bin/../lib/gcc/arm-none-eabi/4.8.2/../../../../arm-none-eabi/lib/thumb\libg.a(lib_a-wctomb_r.o)
                0x02038ea0                __wctomb
 .data          0x02038ea4        0x0 c:/nds/devkitpro/devkitarm/bin/../lib/gcc/arm-none-eabi/4.8.2/../../../../arm-none-eabi/lib/thumb\libg.a(lib_a-wsetup.o)
 .data          0x02038ea4        0x0 c:/nds/devkitpro/devkitarm/bin/../lib/gcc/arm-none-eabi/4.8.2/../../../../arm-none-eabi/lib/thumb\libg.a(lib_a-div.o)
 .data          0x02038ea4        0x0 c:/nds/devkitpro/devkitarm/bin/../lib/gcc/arm-none-eabi/4.8.2/../../../../arm-none-eabi/lib/thumb\libg.a(lib_a-dtoa.o)
 .data          0x02038ea4        0x0 c:/nds/devkitpro/devkitarm/bin/../lib/gcc/arm-none-eabi/4.8.2/../../../../arm-none-eabi/lib/thumb\libg.a(lib_a-flags.o)
 .data          0x02038ea4        0x0 c:/nds/devkitpro/devkitarm/bin/../lib/gcc/arm-none-eabi/4.8.2/../../../../arm-none-eabi/lib/thumb\libg.a(lib_a-fputwc.o)
 .data          0x02038ea4        0x0 c:/nds/devkitpro/devkitarm/bin/../lib/gcc/arm-none-eabi/4.8.2/../../../../arm-none-eabi/lib/thumb\libg.a(lib_a-getenv_r.o)
 .data          0x02038ea4       0x40 c:/nds/devkitpro/devkitarm/bin/../lib/gcc/arm-none-eabi/4.8.2/../../../../arm-none-eabi/lib/thumb\libg.a(lib_a-gettzinfo.o)
 .data          0x02038ee4        0x0 c:/nds/devkitpro/devkitarm/bin/../lib/gcc/arm-none-eabi/4.8.2/../../../../arm-none-eabi/lib/thumb\libg.a(lib_a-iswspace.o)
 .data          0x02038ee4        0x0 c:/nds/devkitpro/devkitarm/bin/../lib/gcc/arm-none-eabi/4.8.2/../../../../arm-none-eabi/lib/thumb\libg.a(lib_a-jp2uc.o)
 .data          0x02038ee4        0x0 c:/nds/devkitpro/devkitarm/bin/../lib/gcc/arm-none-eabi/4.8.2/../../../../arm-none-eabi/lib/thumb\libg.a(lib_a-mbsnrtowcs.o)
 .data          0x02038ee4        0x0 c:/nds/devkitpro/devkitarm/bin/../lib/gcc/arm-none-eabi/4.8.2/../../../../arm-none-eabi/lib/thumb\libg.a(lib_a-mprec.o)
 .data          0x02038ee4        0x0 c:/nds/devkitpro/devkitarm/bin/../lib/gcc/arm-none-eabi/4.8.2/../../../../arm-none-eabi/lib/thumb\libg.a(lib_a-sccl.o)
 .data          0x02038ee4        0x0 c:/nds/devkitpro/devkitarm/bin/../lib/gcc/arm-none-eabi/4.8.2/../../../../arm-none-eabi/lib/thumb\libg.a(lib_a-s_fpclassify.o)
 .data          0x02038ee4        0x0 c:/nds/devkitpro/devkitarm/bin/../lib/gcc/arm-none-eabi/4.8.2/../../../../arm-none-eabi/lib/thumb\libg.a(lib_a-strtoll_r.o)
 .data          0x02038ee4        0x0 c:/nds/devkitpro/devkitarm/bin/../lib/gcc/arm-none-eabi/4.8.2/../../../../arm-none-eabi/lib/thumb\libg.a(lib_a-strtoull_r.o)
 .data          0x02038ee4        0x0 c:/nds/devkitpro/devkitarm/bin/../lib/gcc/arm-none-eabi/4.8.2/../../../../arm-none-eabi/lib/thumb\libg.a(lib_a-strtoul.o)
 .data          0x02038ee4        0x0 c:/nds/devkitpro/devkitarm/bin/../lib/gcc/arm-none-eabi/4.8.2/../../../../arm-none-eabi/lib/thumb\libg.a(lib_a-svfiprintf.o)
 .data          0x02038ee4        0x0 c:/nds/devkitpro/devkitarm/bin/../lib/gcc/arm-none-eabi/4.8.2/../../../../arm-none-eabi/lib/thumb\libg.a(lib_a-wcsnrtombs.o)
 .data          0x02038ee4        0x4 c:/nds/devkitpro/devkitarm/bin/../lib/gcc/arm-none-eabi/4.8.2/../../../../arm-none-eabi/lib/thumb\libg.a(lib_a-environ.o)
                0x02038ee4                environ
 .data          0x02038ee8        0x0 c:/nds/devkitpro/devkitarm/bin/../lib/gcc/arm-none-eabi/4.8.2/../../../../arm-none-eabi/lib/thumb\libg.a(lib_a-envlock.o)
 .data          0x02038ee8       0x44 c:/nds/devkitpro/devkitarm/bin/../lib/gcc/arm-none-eabi/4.8.2/../../../../arm-none-eabi/lib/thumb\libsysbase.a(iosupport.o)
                0x02038eec                devoptab_list
 .data          0x02038f2c        0x0 c:/nds/devkitpro/devkitarm/bin/../lib/gcc/arm-none-eabi/4.8.2/../../../../arm-none-eabi/lib/thumb\libsysbase.a(close.o)
 .data          0x02038f2c        0x0 c:/nds/devkitpro/devkitarm/bin/../lib/gcc/arm-none-eabi/4.8.2/../../../../arm-none-eabi/lib/thumb\libsysbase.a(fstat.o)
 .data          0x02038f2c        0x0 c:/nds/devkitpro/devkitarm/bin/../lib/gcc/arm-none-eabi/4.8.2/../../../../arm-none-eabi/lib/thumb\libsysbase.a(getpid.o)
 .data          0x02038f2c        0x0 c:/nds/devkitpro/devkitarm/bin/../lib/gcc/arm-none-eabi/4.8.2/../../../../arm-none-eabi/lib/thumb\libsysbase.a(isatty.o)
 .data          0x02038f2c        0x0 c:/nds/devkitpro/devkitarm/bin/../lib/gcc/arm-none-eabi/4.8.2/../../../../arm-none-eabi/lib/thumb\libsysbase.a(kill.o)
 .data          0x02038f2c        0x0 c:/nds/devkitpro/devkitarm/bin/../lib/gcc/arm-none-eabi/4.8.2/../../../../arm-none-eabi/lib/thumb\libsysbase.a(lseek.o)
 .data          0x02038f2c        0x0 c:/nds/devkitpro/devkitarm/bin/../lib/gcc/arm-none-eabi/4.8.2/../../../../arm-none-eabi/lib/thumb\libsysbase.a(open.o)
 .data          0x02038f2c        0x0 c:/nds/devkitpro/devkitarm/bin/../lib/gcc/arm-none-eabi/4.8.2/../../../../arm-none-eabi/lib/thumb\libsysbase.a(read.o)
 .data          0x02038f2c        0x0 c:/nds/devkitpro/devkitarm/bin/../lib/gcc/arm-none-eabi/4.8.2/../../../../arm-none-eabi/lib/thumb\libsysbase.a(sbrk.o)
 .data          0x02038f2c        0x0 c:/nds/devkitpro/devkitarm/bin/../lib/gcc/arm-none-eabi/4.8.2/../../../../arm-none-eabi/lib/thumb\libsysbase.a(times.o)
 .data          0x02038f2c        0x0 c:/nds/devkitpro/devkitarm/bin/../lib/gcc/arm-none-eabi/4.8.2/../../../../arm-none-eabi/lib/thumb\libsysbase.a(write.o)
 .data          0x02038f2c        0x0 c:/nds/devkitpro/devkitarm/bin/../lib/gcc/arm-none-eabi/4.8.2/../../../../arm-none-eabi/lib/thumb\libsysbase.a(_exit.o)
 .data          0x02038f2c        0x0 c:/nds/devkitpro/devkitarm/bin/../lib/gcc/arm-none-eabi/4.8.2/../../../../arm-none-eabi/lib/thumb\libsysbase.a(malloc_vars.o)
 .data          0x02038f2c     0x1000 c:/nds/devkitpro/devkitarm/bin/../lib/gcc/arm-none-eabi/4.8.2/../../../../arm-none-eabi/lib/thumb\libsysbase.a(chdir.o)
 .data          0x02039f2c        0x0 c:/nds/devkitpro/devkitarm/bin/../lib/gcc/arm-none-eabi/4.8.2/../../../../arm-none-eabi/lib/thumb\libsysbase.a(build_argv.o)
 .data          0x02039f2c        0x0 c:/nds/devkitpro/devkitarm/bin/../lib/gcc/arm-none-eabi/4.8.2/../../../../arm-none-eabi/lib/thumb\libsysbase.a(syscall_support.o)
 .data          0x02039f2c        0x0 c:/nds/devkitpro/devkitarm/bin/../lib/gcc/arm-none-eabi/4.8.2/../../../../arm-none-eabi/lib/thumb\libsysbase.a(handle_manager.o)
 .data          0x02039f2c        0x0 c:/nds/devkitpro/devkitarm/bin/../lib/gcc/arm-none-eabi/4.8.2/thumb\libgcc.a(_arm_addsubdf3.o)
 .data          0x02039f2c        0x0 c:/nds/devkitpro/devkitarm/bin/../lib/gcc/arm-none-eabi/4.8.2/thumb\libgcc.a(_arm_muldivdf3.o)
 .data          0x02039f2c        0x0 c:/nds/devkitpro/devkitarm/bin/../lib/gcc/arm-none-eabi/4.8.2/thumb\libgcc.a(_arm_cmpdf2.o)
 .data          0x02039f2c        0x0 c:/nds/devkitpro/devkitarm/bin/../lib/gcc/arm-none-eabi/4.8.2/thumb\libgcc.a(_arm_fixdfsi.o)
 .data          0x02039f2c        0x0 c:/nds/devkitpro/devkitarm/bin/../lib/gcc/arm-none-eabi/4.8.2/thumb\libgcc.a(_aeabi_uldivmod.o)
 .data          0x02039f2c        0x0 c:/nds/devkitpro/devkitarm/bin/../lib/gcc/arm-none-eabi/4.8.2/thumb\libgcc.a(bpabi.o)
 .data          0x02039f2c        0x0 c:/nds/devkitpro/devkitarm/bin/../lib/gcc/arm-none-eabi/4.8.2/thumb\libgcc.a(_divdi3.o)
 .data          0x02039f2c        0x0 c:/nds/devkitpro/devkitarm/bin/../lib/gcc/arm-none-eabi/4.8.2/thumb\libgcc.a(_udivdi3.o)
 .data          0x02039f2c        0x0 c:/nds/devkitpro/devkitarm/bin/../lib/gcc/arm-none-eabi/4.8.2/thumb\libgcc.a(_clzsi2.o)
 .data          0x02039f2c        0x0 c:/nds/devkitpro/devkitarm/bin/../lib/gcc/arm-none-eabi/4.8.2/../../../../arm-none-eabi/lib/thumb\libg.a(lib_a-errno.o)
 .data          0x02039f2c        0x0 c:/nds/devkitpro/devkitarm/bin/../lib/gcc/arm-none-eabi/4.8.2/thumb/crtend.o
 .data          0x02039f2c        0x0 c:/nds/devkitpro/devkitarm/bin/../lib/gcc/arm-none-eabi/4.8.2/thumb/crtn.o
 *(.data.*)
 .data._ZN10__cxxabiv120__unexpected_handlerE
                0x02039f2c        0x4 c:/nds/devkitpro/devkitarm/bin/../lib/gcc/arm-none-eabi/4.8.2/../../../../arm-none-eabi/lib/thumb\libstdc++.a(eh_unex_handler.o)
                0x02039f2c                __cxxabiv1::__unexpected_handler
 .data._ZN10__cxxabiv119__terminate_handlerE
                0x02039f30        0x4 c:/nds/devkitpro/devkitarm/bin/../lib/gcc/arm-none-eabi/4.8.2/../../../../arm-none-eabi/lib/thumb\libstdc++.a(eh_term_handler.o)
                0x02039f30                __cxxabiv1::__terminate_handler
 *(.gnu.linkonce.d*)
                0x02039f34                . = ALIGN (0x4)
                0x02039f34                __data_end = ABSOLUTE (.)
                0x02039f34                __dtcm_lma = .
                0x02039f34                __bss_vma = .

.igot.plt       0x02039f34        0x0
 .igot.plt      0x00000000        0x0 c:/nds/devkitpro/devkitarm/bin/../lib/gcc/arm-none-eabi/4.8.2/../../../../arm-none-eabi/lib/thumb/ds_arm9_crt0.o

.tm_clone_table
                0x02039f34        0x0
 .tm_clone_table
                0x02039f34        0x0 c:/nds/devkitpro/devkitarm/bin/../lib/gcc/arm-none-eabi/4.8.2/thumb/crtbegin.o
 .tm_clone_table
                0x02039f34        0x0 c:/nds/devkitpro/devkitarm/bin/../lib/gcc/arm-none-eabi/4.8.2/thumb/crtend.o

.dtcm           0x0b000000        0x0 load address 0x02039f34
 *(.dtcm)
 *(.dtcm.*)
                0x0b000000                . = ALIGN (0x4)
                0x0b000000                __dtcm_end = ABSOLUTE (.)
                0x02039f34                __itcm_lma = (__dtcm_lma + SIZEOF (.dtcm))

.itcm           0x01000100      0x194 load address 0x02039f34
 *(.itcm)
 .itcm          0x01000100       0xc8 c:/nds/devkitPro/libnds/lib\libnds9.a(interrupts.o)
                0x01000100                irqTable
 .itcm          0x010001c8       0xcc c:/nds/devkitPro/libnds/lib\libnds9.a(interruptDispatcher.o)
                0x010001c8                IntrMain
 *itcm.*(.text)
                0x01000294                . = ALIGN (0x4)
                0x01000294                __itcm_end = ABSOLUTE (.)
                0x0203a0c8                __vectors_lma = (__itcm_lma + SIZEOF (.itcm))

.vectors        0x01000000        0x0 load address 0x0203a0c8
 *(.vectors)
 *vectors.*(.text)
                0x01000000                . = ALIGN (0x4)
                0x01000000                __vectors_end = ABSOLUTE (.)

.sbss           0x0b000000        0x0
                0x0b000000                __sbss_start = ABSOLUTE (.)
                0x0b000000                __sbss_start__ = ABSOLUTE (.)
 *(.sbss)
                0x0b000000                . = ALIGN (0x4)
                0x0b000000                __sbss_end = ABSOLUTE (.)

.bss            0x02039f34     0xfed8
                0x02039f34                __bss_start = ABSOLUTE (.)
                0x02039f34                __bss_start__ = ABSOLUTE (.)
 *(.dynbss)
 *(.gnu.linkonce.b*)
 *(.bss*)
 .bss           0x02039f34        0x0 c:/nds/devkitpro/devkitarm/bin/../lib/gcc/arm-none-eabi/4.8.2/../../../../arm-none-eabi/lib/thumb/ds_arm9_crt0.o
 .bss           0x02039f34        0x0 c:/nds/devkitpro/devkitarm/bin/../lib/gcc/arm-none-eabi/4.8.2/thumb/crti.o
 .bss           0x02039f34       0x1c c:/nds/devkitpro/devkitarm/bin/../lib/gcc/arm-none-eabi/4.8.2/thumb/crtbegin.o
 .bss           0x02039f50        0x8 Background.o
                0x02039f50                CBackground::Layer
                0x02039f54                Background
 .bss           0x02039f58        0x4 Engine.o
                0x02039f58                Engine
 .bss           0x02039f5c        0x4 Input.o
                0x02039f5c                Input
 .bss           0x02039f60        0x4 Menu.o
                0x02039f60                Menu
 .bss           0x02039f64        0x8 Palette.o
                0x02039f64                CPalette::IdRam
                0x02039f65                CPalette::MAX_ID_PALETTE_RAM
                0x02039f66                CPalette::IdVRam
                0x02039f67                CPalette::MAX_ID_PALETTE_VRAM
                0x02039f68                Palette
 .bss           0x02039f6c        0x8 Sprite.o
                0x02039f6c                CSprite::IdRam
                0x02039f6d                CSprite::IdVRam
                0x02039f6e                CSprite::IdScreen
                0x02039f70                Sprite
 .bss           0x02039f74        0x8 Text.o
                0x02039f74                CText::Layer
                0x02039f78                Text
 .bss           0x02039f7c        0x0 main.o
 .bss           0x02039f7c        0x0 c:/nds/Projects/Tutoriales/Tutorial1MenuInicial/nflib/lib\libnflib.a(nf_2d.o)
 .bss           0x02039f7c        0x0 c:/nds/Projects/Tutoriales/Tutorial1MenuInicial/nflib/lib\libnflib.a(nf_3d.o)
 .bss           0x02039f7c        0x0 c:/nds/Projects/Tutoriales/Tutorial1MenuInicial/nflib/lib\libnflib.a(nf_basic.o)
 .bss           0x02039f7c        0x0 c:/nds/Projects/Tutoriales/Tutorial1MenuInicial/nflib/lib\libnflib.a(nf_sprite256.o)
 .bss           0x02039f7c        0x0 c:/nds/Projects/Tutoriales/Tutorial1MenuInicial/nflib/lib\libnflib.a(nf_sprite3d.o)
 .bss           0x02039f7c        0x0 c:/nds/Projects/Tutoriales/Tutorial1MenuInicial/nflib/lib\libnflib.a(nf_text.o)
 .bss           0x02039f7c        0x0 c:/nds/Projects/Tutoriales/Tutorial1MenuInicial/nflib/lib\libnflib.a(nf_tiledbg.o)
 .bss           0x02039f7c      0x214 c:/nds/devkitPro/libnds/lib\libfilesystem.a(nitrofs.o)
 .bss           0x0203a190        0x0 c:/nds/devkitPro/libnds/lib\libfat.a(libfat.o)
 .bss           0x0203a190        0x0 c:/nds/devkitPro/libnds/lib\libfat.a(partition.o)
 .bss           0x0203a190        0x4 c:/nds/devkitPro/libnds/lib\libfat.a(cache.o)
 .bss           0x0203a194        0x0 c:/nds/devkitPro/libnds/lib\libfat.a(directory.o)
 .bss           0x0203a194        0x0 c:/nds/devkitPro/libnds/lib\libfat.a(disc.o)
 .bss           0x0203a194        0x0 c:/nds/devkitPro/libnds/lib\libfat.a(fatdir.o)
 .bss           0x0203a194        0x0 c:/nds/devkitPro/libnds/lib\libfat.a(fatfile.o)
 .bss           0x0203a194        0x0 c:/nds/devkitPro/libnds/lib\libfat.a(file_allocation_table.o)
 .bss           0x0203a194        0x0 c:/nds/devkitPro/libnds/lib\libfat.a(filetime.o)
 .bss           0x0203a194        0x0 c:/nds/devkitPro/libnds/lib\libfat.a(lock.o)
 .bss           0x0203a194        0x0 c:/nds/devkitPro/libnds/lib\libnds9.a(console.o)
 .bss           0x0203a194        0x6 c:/nds/devkitPro/libnds/lib\libnds9.a(keys.o)
 .bss           0x0203a19a        0x0 c:/nds/devkitPro/libnds/lib\libnds9.a(sprite.o)
 .bss           0x0203a19a        0x0 c:/nds/devkitPro/libnds/lib\libnds9.a(sprite_alloc.o)
 .bss           0x0203a19a        0x0 c:/nds/devkitPro/libnds/lib\libnds9.a(trig.o)
 .bss           0x0203a19a        0x0 c:/nds/devkitPro/libnds/lib\libnds9.a(video.o)
 *fill*         0x0203a19a        0x2 
 .bss           0x0203a19c        0x8 c:/nds/devkitPro/libnds/lib\libnds9.a(videoGL.o)
 .bss           0x0203a1a4        0x0 c:/nds/devkitPro/libnds/lib\libnds9.a(dldi.o)
 .bss           0x0203a1a4        0x0 c:/nds/devkitPro/libnds/lib\libnds9.a(dsi_sd.o)
 .bss           0x0203a1a4        0x0 c:/nds/devkitPro/libnds/lib\libnds9.a(initSystem.o)
 .bss           0x0203a1a4        0x0 c:/nds/devkitPro/libnds/lib\libnds9.a(card.o)
 .bss           0x0203a1a4        0x8 c:/nds/devkitPro/libnds/lib\libnds9.a(fifosystem.o)
                0x0203a1a8                processing
 .bss           0x0203a1ac        0x0 c:/nds/devkitPro/libnds/lib\libnds9.a(interrupts.o)
 .bss           0x0203a1ac        0x0 c:/nds/devkitPro/libnds/lib\libnds9.a(libnds_exit.arm.o)
 .bss           0x0203a1ac        0x0 c:/nds/devkitPro/libnds/lib\libnds9.a(dcache.o)
 .bss           0x0203a1ac        0x0 c:/nds/devkitPro/libnds/lib\libnds9.a(dldi_stub.o)
 .bss           0x0203a1ac        0x0 c:/nds/devkitPro/libnds/lib\libnds9.a(mpu_setup.o)
 .bss           0x0203a1ac        0x0 c:/nds/devkitPro/libnds/lib\libnds9.a(biosCalls.o)
 .bss           0x0203a1ac        0x0 c:/nds/devkitPro/libnds/lib\libnds9.a(debugprint.o)
 .bss           0x0203a1ac        0x0 c:/nds/devkitPro/libnds/lib\libnds9.a(interruptDispatcher.o)
 .bss           0x0203a1ac        0x0 c:/nds/devkitPro/libnds/lib\libnds9.a(swiSoftReset.o)
 .bss           0x0203a1ac        0x0 c:/nds/devkitPro/libnds/lib\libnds9.a(default_font.bin.o)
 .bss           0x0203a1ac        0x0 c:/nds/devkitPro/libnds/lib\libnds9.a(background.o)
 .bss           0x0203a1ac        0x0 c:/nds/devkitPro/libnds/lib\libnds9.a(dynamicArray.o)
 .bss           0x0203a1ac        0x4 c:/nds/devkitPro/libnds/lib\libnds9.a(system.o)
 .bss           0x0203a1b0        0x0 c:/nds/devkitpro/devkitarm/bin/../lib/gcc/arm-none-eabi/4.8.2/../../../../arm-none-eabi/lib/thumb\libstdc++.a(new_op.o)
 .bss           0x0203a1b0        0x0 c:/nds/devkitpro/devkitarm/bin/../lib/gcc/arm-none-eabi/4.8.2/../../../../arm-none-eabi/lib/thumb\libstdc++.a(eh_call.o)
 .bss           0x0203a1b0        0x0 c:/nds/devkitpro/devkitarm/bin/../lib/gcc/arm-none-eabi/4.8.2/../../../../arm-none-eabi/lib/thumb\libstdc++.a(eh_personality.o)
 .bss           0x0203a1b0        0x0 c:/nds/devkitpro/devkitarm/bin/../lib/gcc/arm-none-eabi/4.8.2/../../../../arm-none-eabi/lib/thumb\libstdc++.a(eh_terminate.o)
 .bss           0x0203a1b0        0x0 c:/nds/devkitpro/devkitarm/bin/../lib/gcc/arm-none-eabi/4.8.2/../../../../arm-none-eabi/lib/thumb\libstdc++.a(eh_exception.o)
 .bss           0x0203a1b0        0x0 c:/nds/devkitpro/devkitarm/bin/../lib/gcc/arm-none-eabi/4.8.2/../../../../arm-none-eabi/lib/thumb\libstdc++.a(eh_alloc.o)
 .bss._ZL15dependents_used
                0x0203a1b0        0x4 c:/nds/devkitpro/devkitarm/bin/../lib/gcc/arm-none-eabi/4.8.2/../../../../arm-none-eabi/lib/thumb\libstdc++.a(eh_alloc.o)
 *fill*         0x0203a1b4        0x4 
 .bss._ZL17dependents_buffer
                0x0203a1b8      0x1e0 c:/nds/devkitpro/devkitarm/bin/../lib/gcc/arm-none-eabi/4.8.2/../../../../arm-none-eabi/lib/thumb\libstdc++.a(eh_alloc.o)
 .bss._ZL14emergency_used
                0x0203a398        0x4 c:/nds/devkitpro/devkitarm/bin/../lib/gcc/arm-none-eabi/4.8.2/../../../../arm-none-eabi/lib/thumb\libstdc++.a(eh_alloc.o)
 *fill*         0x0203a39c        0x4 
 .bss._ZL16emergency_buffer
                0x0203a3a0      0x800 c:/nds/devkitpro/devkitarm/bin/../lib/gcc/arm-none-eabi/4.8.2/../../../../arm-none-eabi/lib/thumb\libstdc++.a(eh_alloc.o)
 .bss           0x0203aba0        0x0 c:/nds/devkitpro/devkitarm/bin/../lib/gcc/arm-none-eabi/4.8.2/../../../../arm-none-eabi/lib/thumb\libstdc++.a(bad_alloc.o)
 .bss           0x0203aba0        0x0 c:/nds/devkitpro/devkitarm/bin/../lib/gcc/arm-none-eabi/4.8.2/../../../../arm-none-eabi/lib/thumb\libstdc++.a(class_type_info.o)
 .bss           0x0203aba0        0x0 c:/nds/devkitpro/devkitarm/bin/../lib/gcc/arm-none-eabi/4.8.2/../../../../arm-none-eabi/lib/thumb\libstdc++.a(new_handler.o)
 .bss.__new_handler
                0x0203aba0        0x4 c:/nds/devkitpro/devkitarm/bin/../lib/gcc/arm-none-eabi/4.8.2/../../../../arm-none-eabi/lib/thumb\libstdc++.a(new_handler.o)
                0x0203aba0                __new_handler
 .bss           0x0203aba4        0x0 c:/nds/devkitpro/devkitarm/bin/../lib/gcc/arm-none-eabi/4.8.2/../../../../arm-none-eabi/lib/thumb\libstdc++.a(eh_arm.o)
 .bss           0x0203aba4        0x0 c:/nds/devkitpro/devkitarm/bin/../lib/gcc/arm-none-eabi/4.8.2/../../../../arm-none-eabi/lib/thumb\libstdc++.a(eh_throw.o)
 .bss           0x0203aba4        0x0 c:/nds/devkitpro/devkitarm/bin/../lib/gcc/arm-none-eabi/4.8.2/../../../../arm-none-eabi/lib/thumb\libstdc++.a(pure.o)
 .bss           0x0203aba4        0x0 c:/nds/devkitpro/devkitarm/bin/../lib/gcc/arm-none-eabi/4.8.2/../../../../arm-none-eabi/lib/thumb\libstdc++.a(eh_globals.o)
 .bss._ZL10eh_globals
                0x0203aba4        0xc c:/nds/devkitpro/devkitarm/bin/../lib/gcc/arm-none-eabi/4.8.2/../../../../arm-none-eabi/lib/thumb\libstdc++.a(eh_globals.o)
 .bss           0x0203abb0        0x0 c:/nds/devkitpro/devkitarm/bin/../lib/gcc/arm-none-eabi/4.8.2/../../../../arm-none-eabi/lib/thumb\libstdc++.a(eh_catch.o)
 .bss           0x0203abb0        0x0 c:/nds/devkitpro/devkitarm/bin/../lib/gcc/arm-none-eabi/4.8.2/../../../../arm-none-eabi/lib/thumb\libstdc++.a(si_class_type_info.o)
 .bss           0x0203abb0        0x0 c:/nds/devkitpro/devkitarm/bin/../lib/gcc/arm-none-eabi/4.8.2/../../../../arm-none-eabi/lib/thumb\libstdc++.a(eh_unex_handler.o)
 .bss           0x0203abb0        0x0 c:/nds/devkitpro/devkitarm/bin/../lib/gcc/arm-none-eabi/4.8.2/../../../../arm-none-eabi/lib/thumb\libstdc++.a(tinfo.o)
 .bss           0x0203abb0        0x0 c:/nds/devkitpro/devkitarm/bin/../lib/gcc/arm-none-eabi/4.8.2/../../../../arm-none-eabi/lib/thumb\libstdc++.a(eh_term_handler.o)
 .bss           0x0203abb0        0x0 c:/nds/devkitpro/devkitarm/bin/../lib/gcc/arm-none-eabi/4.8.2/../../../../arm-none-eabi/lib/thumb\libstdc++.a(del_op.o)
 .bss           0x0203abb0        0x0 c:/nds/devkitpro/devkitarm/bin/../lib/gcc/arm-none-eabi/4.8.2/../../../../arm-none-eabi/lib/thumb\libstdc++.a(vterminate.o)
 .bss._ZZN9__gnu_cxx27__verbose_terminate_handlerEvE11terminating
                0x0203abb0        0x1 c:/nds/devkitpro/devkitarm/bin/../lib/gcc/arm-none-eabi/4.8.2/../../../../arm-none-eabi/lib/thumb\libstdc++.a(vterminate.o)
 .bss           0x0203abb1        0x0 c:/nds/devkitpro/devkitarm/bin/../lib/gcc/arm-none-eabi/4.8.2/../../../../arm-none-eabi/lib/thumb\libstdc++.a(eh_type.o)
 .bss           0x0203abb1        0x0 c:/nds/devkitpro/devkitarm/bin/../lib/gcc/arm-none-eabi/4.8.2/../../../../arm-none-eabi/lib/thumb\libstdc++.a(cp-demangle.o)
 .bss           0x0203abb1        0x0 c:/nds/devkitpro/devkitarm/bin/../lib/gcc/arm-none-eabi/4.8.2/thumb\libgcc.a(_udivsi3.o)
 .bss           0x0203abb1        0x0 c:/nds/devkitpro/devkitarm/bin/../lib/gcc/arm-none-eabi/4.8.2/thumb\libgcc.a(_divsi3.o)
 .bss           0x0203abb1        0x0 c:/nds/devkitpro/devkitarm/bin/../lib/gcc/arm-none-eabi/4.8.2/thumb\libgcc.a(_dvmd_tls.o)
 .bss           0x0203abb1        0x0 c:/nds/devkitpro/devkitarm/bin/../lib/gcc/arm-none-eabi/4.8.2/thumb\libgcc.a(_muldi3.o)
 .bss           0x0203abb1        0x0 c:/nds/devkitpro/devkitarm/bin/../lib/gcc/arm-none-eabi/4.8.2/thumb\libgcc.a(unwind-arm.o)
 .bss           0x0203abb1        0x0 c:/nds/devkitpro/devkitarm/bin/../lib/gcc/arm-none-eabi/4.8.2/thumb\libgcc.a(libunwind.o)
 .bss           0x0203abb1        0x0 c:/nds/devkitpro/devkitarm/bin/../lib/gcc/arm-none-eabi/4.8.2/thumb\libgcc.a(pr-support.o)
 .bss           0x0203abb1        0x0 c:/nds/devkitpro/devkitarm/bin/../lib/gcc/arm-none-eabi/4.8.2/../../../../arm-none-eabi/lib/thumb\libg.a(lib_a-abort.o)
 .bss           0x0203abb1        0x0 c:/nds/devkitpro/devkitarm/bin/../lib/gcc/arm-none-eabi/4.8.2/../../../../arm-none-eabi/lib/thumb\libg.a(lib_a-bsearch.o)
 .bss           0x0203abb1        0x0 c:/nds/devkitpro/devkitarm/bin/../lib/gcc/arm-none-eabi/4.8.2/../../../../arm-none-eabi/lib/thumb\libg.a(lib_a-calloc.o)
 .bss           0x0203abb1        0x0 c:/nds/devkitpro/devkitarm/bin/../lib/gcc/arm-none-eabi/4.8.2/../../../../arm-none-eabi/lib/thumb\libg.a(lib_a-callocr.o)
 .bss           0x0203abb1        0x0 c:/nds/devkitpro/devkitarm/bin/../lib/gcc/arm-none-eabi/4.8.2/../../../../arm-none-eabi/lib/thumb\libg.a(lib_a-ctype_.o)
 .bss           0x0203abb1        0x0 c:/nds/devkitpro/devkitarm/bin/../lib/gcc/arm-none-eabi/4.8.2/../../../../arm-none-eabi/lib/thumb\libg.a(lib_a-fclose.o)
 .bss           0x0203abb1        0x0 c:/nds/devkitpro/devkitarm/bin/../lib/gcc/arm-none-eabi/4.8.2/../../../../arm-none-eabi/lib/thumb\libg.a(lib_a-fflush.o)
 .bss           0x0203abb1        0x0 c:/nds/devkitpro/devkitarm/bin/../lib/gcc/arm-none-eabi/4.8.2/../../../../arm-none-eabi/lib/thumb\libg.a(lib_a-findfp.o)
 .bss           0x0203abb1        0x0 c:/nds/devkitpro/devkitarm/bin/../lib/gcc/arm-none-eabi/4.8.2/../../../../arm-none-eabi/lib/thumb\libg.a(lib_a-fopen.o)
 .bss           0x0203abb1        0x0 c:/nds/devkitpro/devkitarm/bin/../lib/gcc/arm-none-eabi/4.8.2/../../../../arm-none-eabi/lib/thumb\libg.a(lib_a-fputc.o)
 .bss           0x0203abb1        0x0 c:/nds/devkitpro/devkitarm/bin/../lib/gcc/arm-none-eabi/4.8.2/../../../../arm-none-eabi/lib/thumb\libg.a(lib_a-fputs.o)
 .bss           0x0203abb1        0x0 c:/nds/devkitpro/devkitarm/bin/../lib/gcc/arm-none-eabi/4.8.2/../../../../arm-none-eabi/lib/thumb\libg.a(lib_a-fread.o)
 .bss           0x0203abb1        0x0 c:/nds/devkitpro/devkitarm/bin/../lib/gcc/arm-none-eabi/4.8.2/../../../../arm-none-eabi/lib/thumb\libg.a(lib_a-freer.o)
 .bss           0x0203abb1        0x0 c:/nds/devkitpro/devkitarm/bin/../lib/gcc/arm-none-eabi/4.8.2/../../../../arm-none-eabi/lib/thumb\libg.a(lib_a-fseek.o)
 .bss           0x0203abb1        0x0 c:/nds/devkitpro/devkitarm/bin/../lib/gcc/arm-none-eabi/4.8.2/../../../../arm-none-eabi/lib/thumb\libg.a(lib_a-fseeko.o)
 .bss           0x0203abb1        0x0 c:/nds/devkitpro/devkitarm/bin/../lib/gcc/arm-none-eabi/4.8.2/../../../../arm-none-eabi/lib/thumb\libg.a(lib_a-ftell.o)
 .bss           0x0203abb1        0x0 c:/nds/devkitpro/devkitarm/bin/../lib/gcc/arm-none-eabi/4.8.2/../../../../arm-none-eabi/lib/thumb\libg.a(lib_a-ftello.o)
 .bss           0x0203abb1        0x0 c:/nds/devkitpro/devkitarm/bin/../lib/gcc/arm-none-eabi/4.8.2/../../../../arm-none-eabi/lib/thumb\libg.a(lib_a-fvwrite.o)
 .bss           0x0203abb1        0x0 c:/nds/devkitpro/devkitarm/bin/../lib/gcc/arm-none-eabi/4.8.2/../../../../arm-none-eabi/lib/thumb\libg.a(lib_a-fwalk.o)
 .bss           0x0203abb1        0x0 c:/nds/devkitpro/devkitarm/bin/../lib/gcc/arm-none-eabi/4.8.2/../../../../arm-none-eabi/lib/thumb\libg.a(lib_a-fwrite.o)
 .bss           0x0203abb1        0x0 c:/nds/devkitpro/devkitarm/bin/../lib/gcc/arm-none-eabi/4.8.2/../../../../arm-none-eabi/lib/thumb\libg.a(lib_a-impure.o)
 .bss           0x0203abb1        0x0 c:/nds/devkitpro/devkitarm/bin/../lib/gcc/arm-none-eabi/4.8.2/../../../../arm-none-eabi/lib/thumb\libg.a(lib_a-init.o)
 .bss           0x0203abb1        0x0 c:/nds/devkitpro/devkitarm/bin/../lib/gcc/arm-none-eabi/4.8.2/../../../../arm-none-eabi/lib/thumb\libg.a(lib_a-iprintf.o)
 .bss           0x0203abb1        0x0 c:/nds/devkitpro/devkitarm/bin/../lib/gcc/arm-none-eabi/4.8.2/../../../../arm-none-eabi/lib/thumb\libg.a(lib_a-lcltime_r.o)
 *fill*         0x0203abb1        0x3 
 .bss           0x0203abb4      0x2b8 c:/nds/devkitpro/devkitarm/bin/../lib/gcc/arm-none-eabi/4.8.2/../../../../arm-none-eabi/lib/thumb\libg.a(lib_a-locale.o)
                0x0203ae60                _PathLocale
                0x0203ae64                __mlocale_changed
                0x0203ae68                __nlocale_changed
 .bss           0x0203ae6c        0x0 c:/nds/devkitpro/devkitarm/bin/../lib/gcc/arm-none-eabi/4.8.2/../../../../arm-none-eabi/lib/thumb\libg.a(lib_a-makebuf.o)
 .bss           0x0203ae6c        0x0 c:/nds/devkitpro/devkitarm/bin/../lib/gcc/arm-none-eabi/4.8.2/../../../../arm-none-eabi/lib/thumb\libg.a(lib_a-malloc.o)
 .bss           0x0203ae6c       0x34 c:/nds/devkitpro/devkitarm/bin/../lib/gcc/arm-none-eabi/4.8.2/../../../../arm-none-eabi/lib/thumb\libg.a(lib_a-mallocr.o)
                0x0203ae6c                __malloc_top_pad
                0x0203ae70                __malloc_current_mallinfo
                0x0203ae98                __malloc_max_sbrked_mem
                0x0203ae9c                __malloc_max_total_mem
 .bss           0x0203aea0        0x0 c:/nds/devkitpro/devkitarm/bin/../lib/gcc/arm-none-eabi/4.8.2/../../../../arm-none-eabi/lib/thumb\libg.a(lib_a-mbrtowc.o)
 .bss           0x0203aea0        0x0 c:/nds/devkitpro/devkitarm/bin/../lib/gcc/arm-none-eabi/4.8.2/../../../../arm-none-eabi/lib/thumb\libg.a(lib_a-mbsrtowcs.o)
 .bss           0x0203aea0        0x0 c:/nds/devkitpro/devkitarm/bin/../lib/gcc/arm-none-eabi/4.8.2/../../../../arm-none-eabi/lib/thumb\libg.a(lib_a-mbtowc_r.o)
 .bss           0x0203aea0        0x0 c:/nds/devkitpro/devkitarm/bin/../lib/gcc/arm-none-eabi/4.8.2/../../../../arm-none-eabi/lib/thumb\libg.a(lib_a-memchr-stub.o)
 .bss           0x0203aea0        0x0 c:/nds/devkitpro/devkitarm/bin/../lib/gcc/arm-none-eabi/4.8.2/../../../../arm-none-eabi/lib/thumb\libg.a(lib_a-memcmp.o)
 .bss           0x0203aea0        0x0 c:/nds/devkitpro/devkitarm/bin/../lib/gcc/arm-none-eabi/4.8.2/../../../../arm-none-eabi/lib/thumb\libg.a(lib_a-memcpy-stub.o)
 .bss           0x0203aea0        0x0 c:/nds/devkitpro/devkitarm/bin/../lib/gcc/arm-none-eabi/4.8.2/../../../../arm-none-eabi/lib/thumb\libg.a(lib_a-memmove.o)
 .bss           0x0203aea0        0x0 c:/nds/devkitpro/devkitarm/bin/../lib/gcc/arm-none-eabi/4.8.2/../../../../arm-none-eabi/lib/thumb\libg.a(lib_a-memset.o)
 .bss           0x0203aea0        0x0 c:/nds/devkitpro/devkitarm/bin/../lib/gcc/arm-none-eabi/4.8.2/../../../../arm-none-eabi/lib/thumb\libg.a(lib_a-mktime.o)
 .bss           0x0203aea0        0x0 c:/nds/devkitpro/devkitarm/bin/../lib/gcc/arm-none-eabi/4.8.2/../../../../arm-none-eabi/lib/thumb\libg.a(lib_a-mktm_r.o)
 .bss           0x0203aea0        0x0 c:/nds/devkitpro/devkitarm/bin/../lib/gcc/arm-none-eabi/4.8.2/../../../../arm-none-eabi/lib/thumb\libg.a(lib_a-mlock.o)
 .bss           0x0203aea0        0x0 c:/nds/devkitpro/devkitarm/bin/../lib/gcc/arm-none-eabi/4.8.2/../../../../arm-none-eabi/lib/thumb\libg.a(lib_a-putc.o)
 .bss           0x0203aea0        0x0 c:/nds/devkitpro/devkitarm/bin/../lib/gcc/arm-none-eabi/4.8.2/../../../../arm-none-eabi/lib/thumb\libg.a(lib_a-realloc.o)
 .bss           0x0203aea0        0x0 c:/nds/devkitpro/devkitarm/bin/../lib/gcc/arm-none-eabi/4.8.2/../../../../arm-none-eabi/lib/thumb\libg.a(lib_a-reallocr.o)
 .bss           0x0203aea0        0x0 c:/nds/devkitpro/devkitarm/bin/../lib/gcc/arm-none-eabi/4.8.2/../../../../arm-none-eabi/lib/thumb\libg.a(lib_a-refill.o)
 .bss           0x0203aea0        0x0 c:/nds/devkitpro/devkitarm/bin/../lib/gcc/arm-none-eabi/4.8.2/../../../../arm-none-eabi/lib/thumb\libg.a(lib_a-rewind.o)
 .bss           0x0203aea0        0x0 c:/nds/devkitpro/devkitarm/bin/../lib/gcc/arm-none-eabi/4.8.2/../../../../arm-none-eabi/lib/thumb\libg.a(lib_a-setvbuf.o)
 .bss           0x0203aea0        0x0 c:/nds/devkitpro/devkitarm/bin/../lib/gcc/arm-none-eabi/4.8.2/../../../../arm-none-eabi/lib/thumb\libg.a(lib_a-signal.o)
 .bss           0x0203aea0        0x0 c:/nds/devkitpro/devkitarm/bin/../lib/gcc/arm-none-eabi/4.8.2/../../../../arm-none-eabi/lib/thumb\libg.a(lib_a-siscanf.o)
 .bss           0x0203aea0        0x0 c:/nds/devkitpro/devkitarm/bin/../lib/gcc/arm-none-eabi/4.8.2/../../../../arm-none-eabi/lib/thumb\libg.a(lib_a-sprintf.o)
 .bss           0x0203aea0        0x0 c:/nds/devkitpro/devkitarm/bin/../lib/gcc/arm-none-eabi/4.8.2/../../../../arm-none-eabi/lib/thumb\libg.a(lib_a-stdio.o)
 .bss           0x0203aea0        0x0 c:/nds/devkitpro/devkitarm/bin/../lib/gcc/arm-none-eabi/4.8.2/../../../../arm-none-eabi/lib/thumb\libg.a(lib_a-stpcpy.o)
 .bss           0x0203aea0        0x0 c:/nds/devkitpro/devkitarm/bin/../lib/gcc/arm-none-eabi/4.8.2/../../../../arm-none-eabi/lib/thumb\libg.a(lib_a-strcasecmp.o)
 .bss           0x0203aea0        0x0 c:/nds/devkitpro/devkitarm/bin/../lib/gcc/arm-none-eabi/4.8.2/../../../../arm-none-eabi/lib/thumb\libg.a(lib_a-strcat.o)
 .bss           0x0203aea0        0x0 c:/nds/devkitpro/devkitarm/bin/../lib/gcc/arm-none-eabi/4.8.2/../../../../arm-none-eabi/lib/thumb\libg.a(lib_a-strchr.o)
 .bss           0x0203aea0        0x0 c:/nds/devkitpro/devkitarm/bin/../lib/gcc/arm-none-eabi/4.8.2/../../../../arm-none-eabi/lib/thumb\libg.a(lib_a-strcmp.o)
 .bss           0x0203aea0        0x0 c:/nds/devkitpro/devkitarm/bin/../lib/gcc/arm-none-eabi/4.8.2/../../../../arm-none-eabi/lib/thumb\libg.a(lib_a-strcpy.o)
 .bss           0x0203aea0        0x0 c:/nds/devkitpro/devkitarm/bin/../lib/gcc/arm-none-eabi/4.8.2/../../../../arm-none-eabi/lib/thumb\libg.a(lib_a-strdup.o)
 .bss           0x0203aea0        0x0 c:/nds/devkitpro/devkitarm/bin/../lib/gcc/arm-none-eabi/4.8.2/../../../../arm-none-eabi/lib/thumb\libg.a(lib_a-strdup_r.o)
 .bss           0x0203aea0        0x0 c:/nds/devkitpro/devkitarm/bin/../lib/gcc/arm-none-eabi/4.8.2/../../../../arm-none-eabi/lib/thumb\libg.a(lib_a-strlcpy.o)
 .bss           0x0203aea0        0x0 c:/nds/devkitpro/devkitarm/bin/../lib/gcc/arm-none-eabi/4.8.2/../../../../arm-none-eabi/lib/thumb\libg.a(lib_a-strlen.o)
 .bss           0x0203aea0        0x0 c:/nds/devkitpro/devkitarm/bin/../lib/gcc/arm-none-eabi/4.8.2/../../../../arm-none-eabi/lib/thumb\libg.a(lib_a-strncasecmp.o)
 .bss           0x0203aea0        0x0 c:/nds/devkitpro/devkitarm/bin/../lib/gcc/arm-none-eabi/4.8.2/../../../../arm-none-eabi/lib/thumb\libg.a(lib_a-strncmp.o)
 .bss           0x0203aea0        0x0 c:/nds/devkitpro/devkitarm/bin/../lib/gcc/arm-none-eabi/4.8.2/../../../../arm-none-eabi/lib/thumb\libg.a(lib_a-strncpy.o)
 .bss           0x0203aea0        0x0 c:/nds/devkitpro/devkitarm/bin/../lib/gcc/arm-none-eabi/4.8.2/../../../../arm-none-eabi/lib/thumb\libg.a(lib_a-strnlen.o)
 .bss           0x0203aea0        0x0 c:/nds/devkitpro/devkitarm/bin/../lib/gcc/arm-none-eabi/4.8.2/../../../../arm-none-eabi/lib/thumb\libg.a(lib_a-strpbrk.o)
 .bss           0x0203aea0        0x0 c:/nds/devkitpro/devkitarm/bin/../lib/gcc/arm-none-eabi/4.8.2/../../../../arm-none-eabi/lib/thumb\libg.a(lib_a-strrchr.o)
 .bss           0x0203aea0        0x0 c:/nds/devkitpro/devkitarm/bin/../lib/gcc/arm-none-eabi/4.8.2/../../../../arm-none-eabi/lib/thumb\libg.a(lib_a-strtol.o)
 .bss           0x0203aea0        0x0 c:/nds/devkitpro/devkitarm/bin/../lib/gcc/arm-none-eabi/4.8.2/../../../../arm-none-eabi/lib/thumb\libg.a(lib_a-svfiscanf.o)
 .bss           0x0203aea0        0x0 c:/nds/devkitpro/devkitarm/bin/../lib/gcc/arm-none-eabi/4.8.2/../../../../arm-none-eabi/lib/thumb\libg.a(lib_a-svfprintf.o)
 .bss           0x0203aea0        0x0 c:/nds/devkitpro/devkitarm/bin/../lib/gcc/arm-none-eabi/4.8.2/../../../../arm-none-eabi/lib/thumb\libg.a(lib_a-sysclose.o)
 .bss           0x0203aea0        0x0 c:/nds/devkitpro/devkitarm/bin/../lib/gcc/arm-none-eabi/4.8.2/../../../../arm-none-eabi/lib/thumb\libg.a(lib_a-syslseek.o)
 .bss           0x0203aea0        0x0 c:/nds/devkitpro/devkitarm/bin/../lib/gcc/arm-none-eabi/4.8.2/../../../../arm-none-eabi/lib/thumb\libg.a(lib_a-sysopen.o)
 .bss           0x0203aea0        0x0 c:/nds/devkitpro/devkitarm/bin/../lib/gcc/arm-none-eabi/4.8.2/../../../../arm-none-eabi/lib/thumb\libg.a(lib_a-sysread.o)
 .bss           0x0203aea0        0x0 c:/nds/devkitpro/devkitarm/bin/../lib/gcc/arm-none-eabi/4.8.2/../../../../arm-none-eabi/lib/thumb\libg.a(lib_a-syswrite.o)
 .bss           0x0203aea0        0x0 c:/nds/devkitpro/devkitarm/bin/../lib/gcc/arm-none-eabi/4.8.2/../../../../arm-none-eabi/lib/thumb\libg.a(lib_a-time.o)
 .bss           0x0203aea0        0x0 c:/nds/devkitpro/devkitarm/bin/../lib/gcc/arm-none-eabi/4.8.2/../../../../arm-none-eabi/lib/thumb\libg.a(lib_a-towlower.o)
 .bss           0x0203aea0        0x0 c:/nds/devkitpro/devkitarm/bin/../lib/gcc/arm-none-eabi/4.8.2/../../../../arm-none-eabi/lib/thumb\libg.a(lib_a-towupper.o)
 .bss           0x0203aea0        0x0 c:/nds/devkitpro/devkitarm/bin/../lib/gcc/arm-none-eabi/4.8.2/../../../../arm-none-eabi/lib/thumb\libg.a(lib_a-tzlock.o)
 .bss           0x0203aea0        0x8 c:/nds/devkitpro/devkitarm/bin/../lib/gcc/arm-none-eabi/4.8.2/../../../../arm-none-eabi/lib/thumb\libg.a(lib_a-tzvars.o)
                0x0203aea0                _timezone
                0x0203aea4                _daylight
 .bss           0x0203aea8        0x0 c:/nds/devkitpro/devkitarm/bin/../lib/gcc/arm-none-eabi/4.8.2/../../../../arm-none-eabi/lib/thumb\libg.a(lib_a-ungetc.o)
 .bss           0x0203aea8        0x0 c:/nds/devkitpro/devkitarm/bin/../lib/gcc/arm-none-eabi/4.8.2/../../../../arm-none-eabi/lib/thumb\libg.a(lib_a-vfiprintf.o)
 .bss           0x0203aea8        0x0 c:/nds/devkitpro/devkitarm/bin/../lib/gcc/arm-none-eabi/4.8.2/../../../../arm-none-eabi/lib/thumb\libg.a(lib_a-wbuf.o)
 .bss           0x0203aea8        0x0 c:/nds/devkitpro/devkitarm/bin/../lib/gcc/arm-none-eabi/4.8.2/../../../../arm-none-eabi/lib/thumb\libg.a(lib_a-wcrtomb.o)
 .bss           0x0203aea8        0x0 c:/nds/devkitpro/devkitarm/bin/../lib/gcc/arm-none-eabi/4.8.2/../../../../arm-none-eabi/lib/thumb\libg.a(lib_a-wcsrtombs.o)
 .bss           0x0203aea8        0x0 c:/nds/devkitpro/devkitarm/bin/../lib/gcc/arm-none-eabi/4.8.2/../../../../arm-none-eabi/lib/thumb\libg.a(lib_a-wctob.o)
 .bss           0x0203aea8        0x0 c:/nds/devkitpro/devkitarm/bin/../lib/gcc/arm-none-eabi/4.8.2/../../../../arm-none-eabi/lib/thumb\libg.a(lib_a-wctomb_r.o)
 .bss           0x0203aea8        0x0 c:/nds/devkitpro/devkitarm/bin/../lib/gcc/arm-none-eabi/4.8.2/../../../../arm-none-eabi/lib/thumb\libg.a(lib_a-wsetup.o)
 .bss           0x0203aea8        0x0 c:/nds/devkitpro/devkitarm/bin/../lib/gcc/arm-none-eabi/4.8.2/../../../../arm-none-eabi/lib/thumb\libg.a(lib_a-div.o)
 .bss           0x0203aea8        0x0 c:/nds/devkitpro/devkitarm/bin/../lib/gcc/arm-none-eabi/4.8.2/../../../../arm-none-eabi/lib/thumb\libg.a(lib_a-dtoa.o)
 .bss           0x0203aea8        0x0 c:/nds/devkitpro/devkitarm/bin/../lib/gcc/arm-none-eabi/4.8.2/../../../../arm-none-eabi/lib/thumb\libg.a(lib_a-flags.o)
 .bss           0x0203aea8        0x0 c:/nds/devkitpro/devkitarm/bin/../lib/gcc/arm-none-eabi/4.8.2/../../../../arm-none-eabi/lib/thumb\libg.a(lib_a-fputwc.o)
 .bss           0x0203aea8        0x0 c:/nds/devkitpro/devkitarm/bin/../lib/gcc/arm-none-eabi/4.8.2/../../../../arm-none-eabi/lib/thumb\libg.a(lib_a-getenv_r.o)
 .bss           0x0203aea8        0x0 c:/nds/devkitpro/devkitarm/bin/../lib/gcc/arm-none-eabi/4.8.2/../../../../arm-none-eabi/lib/thumb\libg.a(lib_a-gettzinfo.o)
 .bss           0x0203aea8        0x0 c:/nds/devkitpro/devkitarm/bin/../lib/gcc/arm-none-eabi/4.8.2/../../../../arm-none-eabi/lib/thumb\libg.a(lib_a-iswspace.o)
 .bss           0x0203aea8        0x0 c:/nds/devkitpro/devkitarm/bin/../lib/gcc/arm-none-eabi/4.8.2/../../../../arm-none-eabi/lib/thumb\libg.a(lib_a-jp2uc.o)
 .bss           0x0203aea8        0x0 c:/nds/devkitpro/devkitarm/bin/../lib/gcc/arm-none-eabi/4.8.2/../../../../arm-none-eabi/lib/thumb\libg.a(lib_a-mbsnrtowcs.o)
 .bss           0x0203aea8        0x0 c:/nds/devkitpro/devkitarm/bin/../lib/gcc/arm-none-eabi/4.8.2/../../../../arm-none-eabi/lib/thumb\libg.a(lib_a-mprec.o)
 .bss           0x0203aea8        0x0 c:/nds/devkitpro/devkitarm/bin/../lib/gcc/arm-none-eabi/4.8.2/../../../../arm-none-eabi/lib/thumb\libg.a(lib_a-sccl.o)
 .bss           0x0203aea8        0x0 c:/nds/devkitpro/devkitarm/bin/../lib/gcc/arm-none-eabi/4.8.2/../../../../arm-none-eabi/lib/thumb\libg.a(lib_a-s_fpclassify.o)
 .bss           0x0203aea8        0x0 c:/nds/devkitpro/devkitarm/bin/../lib/gcc/arm-none-eabi/4.8.2/../../../../arm-none-eabi/lib/thumb\libg.a(lib_a-strtoll_r.o)
 .bss           0x0203aea8        0x0 c:/nds/devkitpro/devkitarm/bin/../lib/gcc/arm-none-eabi/4.8.2/../../../../arm-none-eabi/lib/thumb\libg.a(lib_a-strtoull_r.o)
 .bss           0x0203aea8        0x0 c:/nds/devkitpro/devkitarm/bin/../lib/gcc/arm-none-eabi/4.8.2/../../../../arm-none-eabi/lib/thumb\libg.a(lib_a-strtoul.o)
 .bss           0x0203aea8        0x0 c:/nds/devkitpro/devkitarm/bin/../lib/gcc/arm-none-eabi/4.8.2/../../../../arm-none-eabi/lib/thumb\libg.a(lib_a-svfiprintf.o)
 .bss           0x0203aea8        0x0 c:/nds/devkitpro/devkitarm/bin/../lib/gcc/arm-none-eabi/4.8.2/../../../../arm-none-eabi/lib/thumb\libg.a(lib_a-wcsnrtombs.o)
 .bss           0x0203aea8        0x4 c:/nds/devkitpro/devkitarm/bin/../lib/gcc/arm-none-eabi/4.8.2/../../../../arm-none-eabi/lib/thumb\libg.a(lib_a-environ.o)
 .bss           0x0203aeac        0x0 c:/nds/devkitpro/devkitarm/bin/../lib/gcc/arm-none-eabi/4.8.2/../../../../arm-none-eabi/lib/thumb\libg.a(lib_a-envlock.o)
 .bss           0x0203aeac        0x0 c:/nds/devkitpro/devkitarm/bin/../lib/gcc/arm-none-eabi/4.8.2/../../../../arm-none-eabi/lib/thumb\libsysbase.a(iosupport.o)
 .bss           0x0203aeac        0x0 c:/nds/devkitpro/devkitarm/bin/../lib/gcc/arm-none-eabi/4.8.2/../../../../arm-none-eabi/lib/thumb\libsysbase.a(close.o)
 .bss           0x0203aeac        0x0 c:/nds/devkitpro/devkitarm/bin/../lib/gcc/arm-none-eabi/4.8.2/../../../../arm-none-eabi/lib/thumb\libsysbase.a(fstat.o)
 .bss           0x0203aeac        0x0 c:/nds/devkitpro/devkitarm/bin/../lib/gcc/arm-none-eabi/4.8.2/../../../../arm-none-eabi/lib/thumb\libsysbase.a(getpid.o)
 .bss           0x0203aeac        0x0 c:/nds/devkitpro/devkitarm/bin/../lib/gcc/arm-none-eabi/4.8.2/../../../../arm-none-eabi/lib/thumb\libsysbase.a(isatty.o)
 .bss           0x0203aeac        0x0 c:/nds/devkitpro/devkitarm/bin/../lib/gcc/arm-none-eabi/4.8.2/../../../../arm-none-eabi/lib/thumb\libsysbase.a(kill.o)
 .bss           0x0203aeac        0x0 c:/nds/devkitpro/devkitarm/bin/../lib/gcc/arm-none-eabi/4.8.2/../../../../arm-none-eabi/lib/thumb\libsysbase.a(lseek.o)
 .bss           0x0203aeac        0x0 c:/nds/devkitpro/devkitarm/bin/../lib/gcc/arm-none-eabi/4.8.2/../../../../arm-none-eabi/lib/thumb\libsysbase.a(open.o)
 .bss           0x0203aeac        0x0 c:/nds/devkitpro/devkitarm/bin/../lib/gcc/arm-none-eabi/4.8.2/../../../../arm-none-eabi/lib/thumb\libsysbase.a(read.o)
 .bss           0x0203aeac        0x4 c:/nds/devkitpro/devkitarm/bin/../lib/gcc/arm-none-eabi/4.8.2/../../../../arm-none-eabi/lib/thumb\libsysbase.a(sbrk.o)
 .bss           0x0203aeb0        0x0 c:/nds/devkitpro/devkitarm/bin/../lib/gcc/arm-none-eabi/4.8.2/../../../../arm-none-eabi/lib/thumb\libsysbase.a(times.o)
 .bss           0x0203aeb0        0x0 c:/nds/devkitpro/devkitarm/bin/../lib/gcc/arm-none-eabi/4.8.2/../../../../arm-none-eabi/lib/thumb\libsysbase.a(write.o)
 .bss           0x0203aeb0        0x0 c:/nds/devkitpro/devkitarm/bin/../lib/gcc/arm-none-eabi/4.8.2/../../../../arm-none-eabi/lib/thumb\libsysbase.a(_exit.o)
 .bss           0x0203aeb0        0x8 c:/nds/devkitpro/devkitarm/bin/../lib/gcc/arm-none-eabi/4.8.2/../../../../arm-none-eabi/lib/thumb\libsysbase.a(malloc_vars.o)
                0x0203aeb0                fake_heap_start
                0x0203aeb4                fake_heap_end
 .bss           0x0203aeb8        0x0 c:/nds/devkitpro/devkitarm/bin/../lib/gcc/arm-none-eabi/4.8.2/../../../../arm-none-eabi/lib/thumb\libsysbase.a(chdir.o)
 .bss           0x0203aeb8        0x0 c:/nds/devkitpro/devkitarm/bin/../lib/gcc/arm-none-eabi/4.8.2/../../../../arm-none-eabi/lib/thumb\libsysbase.a(build_argv.o)
 .bss           0x0203aeb8        0x8 c:/nds/devkitpro/devkitarm/bin/../lib/gcc/arm-none-eabi/4.8.2/../../../../arm-none-eabi/lib/thumb\libsysbase.a(syscall_support.o)
                0x0203aeb8                __syscalls
 .bss           0x0203aec0     0x1000 c:/nds/devkitpro/devkitarm/bin/../lib/gcc/arm-none-eabi/4.8.2/../../../../arm-none-eabi/lib/thumb\libsysbase.a(handle_manager.o)
 .bss           0x0203bec0        0x0 c:/nds/devkitpro/devkitarm/bin/../lib/gcc/arm-none-eabi/4.8.2/thumb\libgcc.a(_arm_addsubdf3.o)
 .bss           0x0203bec0        0x0 c:/nds/devkitpro/devkitarm/bin/../lib/gcc/arm-none-eabi/4.8.2/thumb\libgcc.a(_arm_muldivdf3.o)
 .bss           0x0203bec0        0x0 c:/nds/devkitpro/devkitarm/bin/../lib/gcc/arm-none-eabi/4.8.2/thumb\libgcc.a(_arm_cmpdf2.o)
 .bss           0x0203bec0        0x0 c:/nds/devkitpro/devkitarm/bin/../lib/gcc/arm-none-eabi/4.8.2/thumb\libgcc.a(_arm_fixdfsi.o)
 .bss           0x0203bec0        0x0 c:/nds/devkitpro/devkitarm/bin/../lib/gcc/arm-none-eabi/4.8.2/thumb\libgcc.a(_aeabi_uldivmod.o)
 .bss           0x0203bec0        0x0 c:/nds/devkitpro/devkitarm/bin/../lib/gcc/arm-none-eabi/4.8.2/thumb\libgcc.a(bpabi.o)
 .bss           0x0203bec0        0x0 c:/nds/devkitpro/devkitarm/bin/../lib/gcc/arm-none-eabi/4.8.2/thumb\libgcc.a(_divdi3.o)
 .bss           0x0203bec0        0x0 c:/nds/devkitpro/devkitarm/bin/../lib/gcc/arm-none-eabi/4.8.2/thumb\libgcc.a(_udivdi3.o)
 .bss           0x0203bec0        0x0 c:/nds/devkitpro/devkitarm/bin/../lib/gcc/arm-none-eabi/4.8.2/thumb\libgcc.a(_clzsi2.o)
 .bss           0x0203bec0        0x0 c:/nds/devkitpro/devkitarm/bin/../lib/gcc/arm-none-eabi/4.8.2/../../../../arm-none-eabi/lib/thumb\libg.a(lib_a-errno.o)
 .bss           0x0203bec0        0x0 c:/nds/devkitpro/devkitarm/bin/../lib/gcc/arm-none-eabi/4.8.2/thumb/crtend.o
 .bss           0x0203bec0        0x0 c:/nds/devkitpro/devkitarm/bin/../lib/gcc/arm-none-eabi/4.8.2/thumb/crtn.o
 *(COMMON)
 COMMON         0x0203bec0       0x20 c:/nds/Projects/Tutoriales/Tutorial1MenuInicial/nflib/lib\libnflib.a(nf_basic.o)
                0x0203bec0                NF_ROOTFOLDER
 COMMON         0x0203bee0     0x5378 c:/nds/Projects/Tutoriales/Tutorial1MenuInicial/nflib/lib\libnflib.a(nf_sprite256.o)
                0x0203bee0                NF_SPR256GFX
                0x0203cae0                NF_BUFFER_SPR256PAL
                0x0203cbe0                NF_BUFFER_SPR256GFX
                0x0203cfe0                NF_SPRITEOAM
                0x0203f3e0                NF_SPR256VRAM
                0x020407e0                NF_SPRVRAM
                0x02041018                NF_SPRPALSLOT
                0x02041058                NF_SPR256PAL
 COMMON         0x02041258     0x605c c:/nds/Projects/Tutoriales/Tutorial1MenuInicial/nflib/lib\libnflib.a(nf_sprite3d.o)
                0x02041258                NF_TEXVRAM
                0x02041a70                NF_TEXPALSLOT
                0x02041ab0                NF_3DSPRITE
                0x02045ab0                NF_CREATED_3DSPRITE
                0x02045eb4                NF_TEX256VRAM
 COMMON         0x020472b4       0x50 c:/nds/Projects/Tutoriales/Tutorial1MenuInicial/nflib/lib\libnflib.a(nf_text.o)
                0x020472b4                NF_TEXT
 COMMON         0x02047304     0x16c8 c:/nds/Projects/Tutoriales/Tutorial1MenuInicial/nflib/lib\libnflib.a(nf_tiledbg.o)
                0x02047304                NF_BUFFER_BGTILES
                0x02047404                NF_TILEBLOCKS
                0x02047414                NF_BUFFER_BGMAP
                0x02047514                NF_BANKS_TILES
                0x02047518                NF_BANKS_MAPS
                0x0204751c                NF_EXBGPAL
                0x02047b1c                NF_TILEDBG_LAYERS
                0x02047bac                NF_MAPBLOCKS
                0x02047bcc                NF_BUFFER_BGPAL
                0x02047ccc                NF_TILEDBG
 COMMON         0x020489cc       0x5c c:/nds/devkitPro/libnds/lib\libnds9.a(console.o)
                0x020489cc                currentCopy
 COMMON         0x02048a28      0x800 c:/nds/devkitPro/libnds/lib\libnds9.a(sprite.o)
                0x02048a28                OamMemorySub
                0x02048e28                OamMemory
 COMMON         0x02049228       0x54 c:/nds/devkitPro/libnds/lib\libnds9.a(videoGL.o)
                0x02049228                glGlobalData
 COMMON         0x0204927c        0x1 c:/nds/devkitPro/libnds/lib\libnds9.a(initSystem.o)
                0x0204927c                __dsimode
 *fill*         0x0204927d        0x3 
 COMMON         0x02049280      0xa40 c:/nds/devkitPro/libnds/lib\libnds9.a(fifosystem.o)
                0x02049280                fifo_datamsg_data
                0x020492c0                fifo_buffer
                0x02049ac0                fifo_value32_func
                0x02049b00                fifo_address_func
                0x02049b40                fifo_value32_data
                0x02049b80                fifo_value32_queue
                0x02049bc0                fifo_data_queue
                0x02049c00                fifo_address_data
                0x02049c40                fifo_datamsg_func
                0x02049c80                fifo_address_queue
 COMMON         0x02049cc0      0x148 c:/nds/devkitPro/libnds/lib\libnds9.a(background.o)
                0x02049cc0                bgState
                0x02049e00                bgIsTextLut
 COMMON         0x02049e08        0x4 c:/nds/devkitpro/devkitarm/bin/../lib/gcc/arm-none-eabi/4.8.2/../../../../arm-none-eabi/lib/thumb\libsysbase.a(times.o)
                0x02049e08                punixTime
                0x02049e0c                . = ALIGN (0x4)
                0x02049e0c                __bss_end__ = ABSOLUTE (.)
                0x02049e0c                __end__ = ABSOLUTE (.)

.stab
 *(.stab)

.stabstr
 *(.stabstr)

.stab.excl
 *(.stab.excl)

.stab.exclstr
 *(.stab.exclstr)

.stab.index
 *(.stab.index)

.stab.indexstr
 *(.stab.indexstr)

.comment        0x00000000       0x44
 *(.comment)
 .comment       0x00000000       0x22 c:/nds/devkitpro/devkitarm/bin/../lib/gcc/arm-none-eabi/4.8.2/thumb/crtbegin.o
                                 0x23 (size before relaxing)
 .comment       0x00000000       0x23 Background.o
 .comment       0x00000000       0x23 Engine.o
 .comment       0x00000000       0x23 Input.o
 .comment       0x00000000       0x23 Menu.o
 .comment       0x00000000       0x23 Palette.o
 .comment       0x00000000       0x23 Sprite.o
 .comment       0x00000000       0x23 Text.o
 .comment       0x00000000       0x23 main.o
 .comment       0x00000022       0x22 c:/nds/Projects/Tutoriales/Tutorial1MenuInicial/nflib/lib\libnflib.a(nf_2d.o)
                                 0x23 (size before relaxing)
 .comment       0x00000000       0x23 c:/nds/Projects/Tutoriales/Tutorial1MenuInicial/nflib/lib\libnflib.a(nf_3d.o)
 .comment       0x00000000       0x23 c:/nds/Projects/Tutoriales/Tutorial1MenuInicial/nflib/lib\libnflib.a(nf_basic.o)
 .comment       0x00000000       0x23 c:/nds/Projects/Tutoriales/Tutorial1MenuInicial/nflib/lib\libnflib.a(nf_sprite256.o)
 .comment       0x00000000       0x23 c:/nds/Projects/Tutoriales/Tutorial1MenuInicial/nflib/lib\libnflib.a(nf_sprite3d.o)
 .comment       0x00000000       0x23 c:/nds/Projects/Tutoriales/Tutorial1MenuInicial/nflib/lib\libnflib.a(nf_text.o)
 .comment       0x00000000       0x23 c:/nds/Projects/Tutoriales/Tutorial1MenuInicial/nflib/lib\libnflib.a(nf_tiledbg.o)
 .comment       0x00000000       0x23 c:/nds/devkitPro/libnds/lib\libfilesystem.a(nitrofs.o)
 .comment       0x00000000       0x23 c:/nds/devkitPro/libnds/lib\libfat.a(libfat.o)
 .comment       0x00000000       0x23 c:/nds/devkitPro/libnds/lib\libfat.a(partition.o)
 .comment       0x00000000       0x23 c:/nds/devkitPro/libnds/lib\libfat.a(cache.o)
 .comment       0x00000000       0x23 c:/nds/devkitPro/libnds/lib\libfat.a(directory.o)
 .comment       0x00000000       0x23 c:/nds/devkitPro/libnds/lib\libfat.a(disc.o)
 .comment       0x00000000       0x23 c:/nds/devkitPro/libnds/lib\libfat.a(fatdir.o)
 .comment       0x00000000       0x23 c:/nds/devkitPro/libnds/lib\libfat.a(fatfile.o)
 .comment       0x00000000       0x23 c:/nds/devkitPro/libnds/lib\libfat.a(file_allocation_table.o)
 .comment       0x00000000       0x23 c:/nds/devkitPro/libnds/lib\libfat.a(filetime.o)
 .comment       0x00000000       0x23 c:/nds/devkitPro/libnds/lib\libfat.a(lock.o)
 .comment       0x00000000       0x23 c:/nds/devkitPro/libnds/lib\libnds9.a(console.o)
 .comment       0x00000000       0x23 c:/nds/devkitPro/libnds/lib\libnds9.a(keys.o)
 .comment       0x00000000       0x23 c:/nds/devkitPro/libnds/lib\libnds9.a(sprite.o)
 .comment       0x00000000       0x23 c:/nds/devkitPro/libnds/lib\libnds9.a(sprite_alloc.o)
 .comment       0x00000000       0x23 c:/nds/devkitPro/libnds/lib\libnds9.a(trig.o)
 .comment       0x00000000       0x23 c:/nds/devkitPro/libnds/lib\libnds9.a(video.o)
 .comment       0x00000000       0x23 c:/nds/devkitPro/libnds/lib\libnds9.a(videoGL.o)
 .comment       0x00000000       0x23 c:/nds/devkitPro/libnds/lib\libnds9.a(dldi.o)
 .comment       0x00000000       0x23 c:/nds/devkitPro/libnds/lib\libnds9.a(dsi_sd.o)
 .comment       0x00000000       0x23 c:/nds/devkitPro/libnds/lib\libnds9.a(initSystem.o)
 .comment       0x00000000       0x23 c:/nds/devkitPro/libnds/lib\libnds9.a(card.o)
 .comment       0x00000000       0x23 c:/nds/devkitPro/libnds/lib\libnds9.a(fifosystem.o)
 .comment       0x00000000       0x23 c:/nds/devkitPro/libnds/lib\libnds9.a(interrupts.o)
 .comment       0x00000000       0x23 c:/nds/devkitPro/libnds/lib\libnds9.a(libnds_exit.arm.o)
 .comment       0x00000000       0x23 c:/nds/devkitPro/libnds/lib\libnds9.a(background.o)
 .comment       0x00000000       0x23 c:/nds/devkitPro/libnds/lib\libnds9.a(dynamicArray.o)
 .comment       0x00000000       0x23 c:/nds/devkitPro/libnds/lib\libnds9.a(system.o)
 .comment       0x00000000       0x23 c:/nds/devkitpro/devkitarm/bin/../lib/gcc/arm-none-eabi/4.8.2/../../../../arm-none-eabi/lib/thumb\libstdc++.a(new_op.o)
 .comment       0x00000000       0x23 c:/nds/devkitpro/devkitarm/bin/../lib/gcc/arm-none-eabi/4.8.2/../../../../arm-none-eabi/lib/thumb\libstdc++.a(eh_call.o)
 .comment       0x00000000       0x23 c:/nds/devkitpro/devkitarm/bin/../lib/gcc/arm-none-eabi/4.8.2/../../../../arm-none-eabi/lib/thumb\libstdc++.a(eh_personality.o)
 .comment       0x00000000       0x23 c:/nds/devkitpro/devkitarm/bin/../lib/gcc/arm-none-eabi/4.8.2/../../../../arm-none-eabi/lib/thumb\libstdc++.a(eh_terminate.o)
 .comment       0x00000000       0x23 c:/nds/devkitpro/devkitarm/bin/../lib/gcc/arm-none-eabi/4.8.2/../../../../arm-none-eabi/lib/thumb\libstdc++.a(eh_exception.o)
 .comment       0x00000000       0x23 c:/nds/devkitpro/devkitarm/bin/../lib/gcc/arm-none-eabi/4.8.2/../../../../arm-none-eabi/lib/thumb\libstdc++.a(eh_alloc.o)
 .comment       0x00000000       0x23 c:/nds/devkitpro/devkitarm/bin/../lib/gcc/arm-none-eabi/4.8.2/../../../../arm-none-eabi/lib/thumb\libstdc++.a(bad_alloc.o)
 .comment       0x00000000       0x23 c:/nds/devkitpro/devkitarm/bin/../lib/gcc/arm-none-eabi/4.8.2/../../../../arm-none-eabi/lib/thumb\libstdc++.a(class_type_info.o)
 .comment       0x00000000       0x23 c:/nds/devkitpro/devkitarm/bin/../lib/gcc/arm-none-eabi/4.8.2/../../../../arm-none-eabi/lib/thumb\libstdc++.a(new_handler.o)
 .comment       0x00000000       0x23 c:/nds/devkitpro/devkitarm/bin/../lib/gcc/arm-none-eabi/4.8.2/../../../../arm-none-eabi/lib/thumb\libstdc++.a(eh_arm.o)
 .comment       0x00000000       0x23 c:/nds/devkitpro/devkitarm/bin/../lib/gcc/arm-none-eabi/4.8.2/../../../../arm-none-eabi/lib/thumb\libstdc++.a(eh_throw.o)
 .comment       0x00000000       0x23 c:/nds/devkitpro/devkitarm/bin/../lib/gcc/arm-none-eabi/4.8.2/../../../../arm-none-eabi/lib/thumb\libstdc++.a(pure.o)
 .comment       0x00000000       0x23 c:/nds/devkitpro/devkitarm/bin/../lib/gcc/arm-none-eabi/4.8.2/../../../../arm-none-eabi/lib/thumb\libstdc++.a(eh_globals.o)
 .comment       0x00000000       0x23 c:/nds/devkitpro/devkitarm/bin/../lib/gcc/arm-none-eabi/4.8.2/../../../../arm-none-eabi/lib/thumb\libstdc++.a(eh_catch.o)
 .comment       0x00000000       0x23 c:/nds/devkitpro/devkitarm/bin/../lib/gcc/arm-none-eabi/4.8.2/../../../../arm-none-eabi/lib/thumb\libstdc++.a(si_class_type_info.o)
 .comment       0x00000000       0x23 c:/nds/devkitpro/devkitarm/bin/../lib/gcc/arm-none-eabi/4.8.2/../../../../arm-none-eabi/lib/thumb\libstdc++.a(eh_unex_handler.o)
 .comment       0x00000000       0x23 c:/nds/devkitpro/devkitarm/bin/../lib/gcc/arm-none-eabi/4.8.2/../../../../arm-none-eabi/lib/thumb\libstdc++.a(tinfo.o)
 .comment       0x00000000       0x23 c:/nds/devkitpro/devkitarm/bin/../lib/gcc/arm-none-eabi/4.8.2/../../../../arm-none-eabi/lib/thumb\libstdc++.a(eh_term_handler.o)
 .comment       0x00000000       0x23 c:/nds/devkitpro/devkitarm/bin/../lib/gcc/arm-none-eabi/4.8.2/../../../../arm-none-eabi/lib/thumb\libstdc++.a(del_op.o)
 .comment       0x00000000       0x23 c:/nds/devkitpro/devkitarm/bin/../lib/gcc/arm-none-eabi/4.8.2/../../../../arm-none-eabi/lib/thumb\libstdc++.a(vterminate.o)
 .comment       0x00000000       0x23 c:/nds/devkitpro/devkitarm/bin/../lib/gcc/arm-none-eabi/4.8.2/../../../../arm-none-eabi/lib/thumb\libstdc++.a(eh_type.o)
 .comment       0x00000000       0x23 c:/nds/devkitpro/devkitarm/bin/../lib/gcc/arm-none-eabi/4.8.2/../../../../arm-none-eabi/lib/thumb\libstdc++.a(cp-demangle.o)
 .comment       0x00000000       0x23 c:/nds/devkitpro/devkitarm/bin/../lib/gcc/arm-none-eabi/4.8.2/thumb\libgcc.a(_muldi3.o)
 .comment       0x00000000       0x23 c:/nds/devkitpro/devkitarm/bin/../lib/gcc/arm-none-eabi/4.8.2/thumb\libgcc.a(unwind-arm.o)
 .comment       0x00000000       0x23 c:/nds/devkitpro/devkitarm/bin/../lib/gcc/arm-none-eabi/4.8.2/thumb\libgcc.a(pr-support.o)
 .comment       0x00000000       0x23 c:/nds/devkitpro/devkitarm/bin/../lib/gcc/arm-none-eabi/4.8.2/../../../../arm-none-eabi/lib/thumb\libg.a(lib_a-abort.o)
 .comment       0x00000000       0x23 c:/nds/devkitpro/devkitarm/bin/../lib/gcc/arm-none-eabi/4.8.2/../../../../arm-none-eabi/lib/thumb\libg.a(lib_a-bsearch.o)
 .comment       0x00000000       0x23 c:/nds/devkitpro/devkitarm/bin/../lib/gcc/arm-none-eabi/4.8.2/../../../../arm-none-eabi/lib/thumb\libg.a(lib_a-calloc.o)
 .comment       0x00000000       0x23 c:/nds/devkitpro/devkitarm/bin/../lib/gcc/arm-none-eabi/4.8.2/../../../../arm-none-eabi/lib/thumb\libg.a(lib_a-callocr.o)
 .comment       0x00000000       0x23 c:/nds/devkitpro/devkitarm/bin/../lib/gcc/arm-none-eabi/4.8.2/../../../../arm-none-eabi/lib/thumb\libg.a(lib_a-ctype_.o)
 .comment       0x00000000       0x23 c:/nds/devkitpro/devkitarm/bin/../lib/gcc/arm-none-eabi/4.8.2/../../../../arm-none-eabi/lib/thumb\libg.a(lib_a-fclose.o)
 .comment       0x00000000       0x23 c:/nds/devkitpro/devkitarm/bin/../lib/gcc/arm-none-eabi/4.8.2/../../../../arm-none-eabi/lib/thumb\libg.a(lib_a-fflush.o)
 .comment       0x00000000       0x23 c:/nds/devkitpro/devkitarm/bin/../lib/gcc/arm-none-eabi/4.8.2/../../../../arm-none-eabi/lib/thumb\libg.a(lib_a-findfp.o)
 .comment       0x00000000       0x23 c:/nds/devkitpro/devkitarm/bin/../lib/gcc/arm-none-eabi/4.8.2/../../../../arm-none-eabi/lib/thumb\libg.a(lib_a-fopen.o)
 .comment       0x00000000       0x23 c:/nds/devkitpro/devkitarm/bin/../lib/gcc/arm-none-eabi/4.8.2/../../../../arm-none-eabi/lib/thumb\libg.a(lib_a-fputc.o)
 .comment       0x00000000       0x23 c:/nds/devkitpro/devkitarm/bin/../lib/gcc/arm-none-eabi/4.8.2/../../../../arm-none-eabi/lib/thumb\libg.a(lib_a-fputs.o)
 .comment       0x00000000       0x23 c:/nds/devkitpro/devkitarm/bin/../lib/gcc/arm-none-eabi/4.8.2/../../../../arm-none-eabi/lib/thumb\libg.a(lib_a-fread.o)
 .comment       0x00000000       0x23 c:/nds/devkitpro/devkitarm/bin/../lib/gcc/arm-none-eabi/4.8.2/../../../../arm-none-eabi/lib/thumb\libg.a(lib_a-freer.o)
 .comment       0x00000000       0x23 c:/nds/devkitpro/devkitarm/bin/../lib/gcc/arm-none-eabi/4.8.2/../../../../arm-none-eabi/lib/thumb\libg.a(lib_a-fseek.o)
 .comment       0x00000000       0x23 c:/nds/devkitpro/devkitarm/bin/../lib/gcc/arm-none-eabi/4.8.2/../../../../arm-none-eabi/lib/thumb\libg.a(lib_a-fseeko.o)
 .comment       0x00000000       0x23 c:/nds/devkitpro/devkitarm/bin/../lib/gcc/arm-none-eabi/4.8.2/../../../../arm-none-eabi/lib/thumb\libg.a(lib_a-ftell.o)
 .comment       0x00000000       0x23 c:/nds/devkitpro/devkitarm/bin/../lib/gcc/arm-none-eabi/4.8.2/../../../../arm-none-eabi/lib/thumb\libg.a(lib_a-ftello.o)
 .comment       0x00000000       0x23 c:/nds/devkitpro/devkitarm/bin/../lib/gcc/arm-none-eabi/4.8.2/../../../../arm-none-eabi/lib/thumb\libg.a(lib_a-fvwrite.o)
 .comment       0x00000000       0x23 c:/nds/devkitpro/devkitarm/bin/../lib/gcc/arm-none-eabi/4.8.2/../../../../arm-none-eabi/lib/thumb\libg.a(lib_a-fwalk.o)
 .comment       0x00000000       0x23 c:/nds/devkitpro/devkitarm/bin/../lib/gcc/arm-none-eabi/4.8.2/../../../../arm-none-eabi/lib/thumb\libg.a(lib_a-fwrite.o)
 .comment       0x00000000       0x23 c:/nds/devkitpro/devkitarm/bin/../lib/gcc/arm-none-eabi/4.8.2/../../../../arm-none-eabi/lib/thumb\libg.a(lib_a-impure.o)
 .comment       0x00000000       0x23 c:/nds/devkitpro/devkitarm/bin/../lib/gcc/arm-none-eabi/4.8.2/../../../../arm-none-eabi/lib/thumb\libg.a(lib_a-init.o)
 .comment       0x00000000       0x23 c:/nds/devkitpro/devkitarm/bin/../lib/gcc/arm-none-eabi/4.8.2/../../../../arm-none-eabi/lib/thumb\libg.a(lib_a-iprintf.o)
 .comment       0x00000000       0x23 c:/nds/devkitpro/devkitarm/bin/../lib/gcc/arm-none-eabi/4.8.2/../../../../arm-none-eabi/lib/thumb\libg.a(lib_a-lcltime_r.o)
 .comment       0x00000000       0x23 c:/nds/devkitpro/devkitarm/bin/../lib/gcc/arm-none-eabi/4.8.2/../../../../arm-none-eabi/lib/thumb\libg.a(lib_a-locale.o)
 .comment       0x00000000       0x23 c:/nds/devkitpro/devkitarm/bin/../lib/gcc/arm-none-eabi/4.8.2/../../../../arm-none-eabi/lib/thumb\libg.a(lib_a-makebuf.o)
 .comment       0x00000000       0x23 c:/nds/devkitpro/devkitarm/bin/../lib/gcc/arm-none-eabi/4.8.2/../../../../arm-none-eabi/lib/thumb\libg.a(lib_a-malloc.o)
 .comment       0x00000000       0x23 c:/nds/devkitpro/devkitarm/bin/../lib/gcc/arm-none-eabi/4.8.2/../../../../arm-none-eabi/lib/thumb\libg.a(lib_a-mallocr.o)
 .comment       0x00000000       0x23 c:/nds/devkitpro/devkitarm/bin/../lib/gcc/arm-none-eabi/4.8.2/../../../../arm-none-eabi/lib/thumb\libg.a(lib_a-mbrtowc.o)
 .comment       0x00000000       0x23 c:/nds/devkitpro/devkitarm/bin/../lib/gcc/arm-none-eabi/4.8.2/../../../../arm-none-eabi/lib/thumb\libg.a(lib_a-mbsrtowcs.o)
 .comment       0x00000000       0x23 c:/nds/devkitpro/devkitarm/bin/../lib/gcc/arm-none-eabi/4.8.2/../../../../arm-none-eabi/lib/thumb\libg.a(lib_a-mbtowc_r.o)
 .comment       0x00000000       0x23 c:/nds/devkitpro/devkitarm/bin/../lib/gcc/arm-none-eabi/4.8.2/../../../../arm-none-eabi/lib/thumb\libg.a(lib_a-memchr-stub.o)
 .comment       0x00000000       0x23 c:/nds/devkitpro/devkitarm/bin/../lib/gcc/arm-none-eabi/4.8.2/../../../../arm-none-eabi/lib/thumb\libg.a(lib_a-memcmp.o)
 .comment       0x00000000       0x23 c:/nds/devkitpro/devkitarm/bin/../lib/gcc/arm-none-eabi/4.8.2/../../../../arm-none-eabi/lib/thumb\libg.a(lib_a-memcpy-stub.o)
 .comment       0x00000000       0x23 c:/nds/devkitpro/devkitarm/bin/../lib/gcc/arm-none-eabi/4.8.2/../../../../arm-none-eabi/lib/thumb\libg.a(lib_a-memmove.o)
 .comment       0x00000000       0x23 c:/nds/devkitpro/devkitarm/bin/../lib/gcc/arm-none-eabi/4.8.2/../../../../arm-none-eabi/lib/thumb\libg.a(lib_a-memset.o)
 .comment       0x00000000       0x23 c:/nds/devkitpro/devkitarm/bin/../lib/gcc/arm-none-eabi/4.8.2/../../../../arm-none-eabi/lib/thumb\libg.a(lib_a-mktime.o)
 .comment       0x00000000       0x23 c:/nds/devkitpro/devkitarm/bin/../lib/gcc/arm-none-eabi/4.8.2/../../../../arm-none-eabi/lib/thumb\libg.a(lib_a-mktm_r.o)
 .comment       0x00000000       0x23 c:/nds/devkitpro/devkitarm/bin/../lib/gcc/arm-none-eabi/4.8.2/../../../../arm-none-eabi/lib/thumb\libg.a(lib_a-mlock.o)
 .comment       0x00000000       0x23 c:/nds/devkitpro/devkitarm/bin/../lib/gcc/arm-none-eabi/4.8.2/../../../../arm-none-eabi/lib/thumb\libg.a(lib_a-putc.o)
 .comment       0x00000000       0x23 c:/nds/devkitpro/devkitarm/bin/../lib/gcc/arm-none-eabi/4.8.2/../../../../arm-none-eabi/lib/thumb\libg.a(lib_a-realloc.o)
 .comment       0x00000000       0x23 c:/nds/devkitpro/devkitarm/bin/../lib/gcc/arm-none-eabi/4.8.2/../../../../arm-none-eabi/lib/thumb\libg.a(lib_a-reallocr.o)
 .comment       0x00000000       0x23 c:/nds/devkitpro/devkitarm/bin/../lib/gcc/arm-none-eabi/4.8.2/../../../../arm-none-eabi/lib/thumb\libg.a(lib_a-refill.o)
 .comment       0x00000000       0x23 c:/nds/devkitpro/devkitarm/bin/../lib/gcc/arm-none-eabi/4.8.2/../../../../arm-none-eabi/lib/thumb\libg.a(lib_a-rewind.o)
 .comment       0x00000000       0x23 c:/nds/devkitpro/devkitarm/bin/../lib/gcc/arm-none-eabi/4.8.2/../../../../arm-none-eabi/lib/thumb\libg.a(lib_a-setvbuf.o)
 .comment       0x00000000       0x23 c:/nds/devkitpro/devkitarm/bin/../lib/gcc/arm-none-eabi/4.8.2/../../../../arm-none-eabi/lib/thumb\libg.a(lib_a-signal.o)
 .comment       0x00000000       0x23 c:/nds/devkitpro/devkitarm/bin/../lib/gcc/arm-none-eabi/4.8.2/../../../../arm-none-eabi/lib/thumb\libg.a(lib_a-siscanf.o)
 .comment       0x00000000       0x23 c:/nds/devkitpro/devkitarm/bin/../lib/gcc/arm-none-eabi/4.8.2/../../../../arm-none-eabi/lib/thumb\libg.a(lib_a-sprintf.o)
 .comment       0x00000000       0x23 c:/nds/devkitpro/devkitarm/bin/../lib/gcc/arm-none-eabi/4.8.2/../../../../arm-none-eabi/lib/thumb\libg.a(lib_a-stdio.o)
 .comment       0x00000000       0x23 c:/nds/devkitpro/devkitarm/bin/../lib/gcc/arm-none-eabi/4.8.2/../../../../arm-none-eabi/lib/thumb\libg.a(lib_a-stpcpy.o)
 .comment       0x00000000       0x23 c:/nds/devkitpro/devkitarm/bin/../lib/gcc/arm-none-eabi/4.8.2/../../../../arm-none-eabi/lib/thumb\libg.a(lib_a-strcasecmp.o)
 .comment       0x00000000       0x23 c:/nds/devkitpro/devkitarm/bin/../lib/gcc/arm-none-eabi/4.8.2/../../../../arm-none-eabi/lib/thumb\libg.a(lib_a-strcat.o)
 .comment       0x00000000       0x23 c:/nds/devkitpro/devkitarm/bin/../lib/gcc/arm-none-eabi/4.8.2/../../../../arm-none-eabi/lib/thumb\libg.a(lib_a-strchr.o)
 .comment       0x00000000       0x23 c:/nds/devkitpro/devkitarm/bin/../lib/gcc/arm-none-eabi/4.8.2/../../../../arm-none-eabi/lib/thumb\libg.a(lib_a-strcpy.o)
 .comment       0x00000000       0x23 c:/nds/devkitpro/devkitarm/bin/../lib/gcc/arm-none-eabi/4.8.2/../../../../arm-none-eabi/lib/thumb\libg.a(lib_a-strdup.o)
 .comment       0x00000000       0x23 c:/nds/devkitpro/devkitarm/bin/../lib/gcc/arm-none-eabi/4.8.2/../../../../arm-none-eabi/lib/thumb\libg.a(lib_a-strdup_r.o)
 .comment       0x00000000       0x23 c:/nds/devkitpro/devkitarm/bin/../lib/gcc/arm-none-eabi/4.8.2/../../../../arm-none-eabi/lib/thumb\libg.a(lib_a-strlcpy.o)
 .comment       0x00000000       0x23 c:/nds/devkitpro/devkitarm/bin/../lib/gcc/arm-none-eabi/4.8.2/../../../../arm-none-eabi/lib/thumb\libg.a(lib_a-strlen.o)
 .comment       0x00000000       0x23 c:/nds/devkitpro/devkitarm/bin/../lib/gcc/arm-none-eabi/4.8.2/../../../../arm-none-eabi/lib/thumb\libg.a(lib_a-strncasecmp.o)
 .comment       0x00000000       0x23 c:/nds/devkitpro/devkitarm/bin/../lib/gcc/arm-none-eabi/4.8.2/../../../../arm-none-eabi/lib/thumb\libg.a(lib_a-strncmp.o)
 .comment       0x00000000       0x23 c:/nds/devkitpro/devkitarm/bin/../lib/gcc/arm-none-eabi/4.8.2/../../../../arm-none-eabi/lib/thumb\libg.a(lib_a-strncpy.o)
 .comment       0x00000000       0x23 c:/nds/devkitpro/devkitarm/bin/../lib/gcc/arm-none-eabi/4.8.2/../../../../arm-none-eabi/lib/thumb\libg.a(lib_a-strnlen.o)
 .comment       0x00000000       0x23 c:/nds/devkitpro/devkitarm/bin/../lib/gcc/arm-none-eabi/4.8.2/../../../../arm-none-eabi/lib/thumb\libg.a(lib_a-strpbrk.o)
 .comment       0x00000000       0x23 c:/nds/devkitpro/devkitarm/bin/../lib/gcc/arm-none-eabi/4.8.2/../../../../arm-none-eabi/lib/thumb\libg.a(lib_a-strrchr.o)
 .comment       0x00000000       0x23 c:/nds/devkitpro/devkitarm/bin/../lib/gcc/arm-none-eabi/4.8.2/../../../../arm-none-eabi/lib/thumb\libg.a(lib_a-strtol.o)
 .comment       0x00000000       0x23 c:/nds/devkitpro/devkitarm/bin/../lib/gcc/arm-none-eabi/4.8.2/../../../../arm-none-eabi/lib/thumb\libg.a(lib_a-svfiscanf.o)
 .comment       0x00000000       0x23 c:/nds/devkitpro/devkitarm/bin/../lib/gcc/arm-none-eabi/4.8.2/../../../../arm-none-eabi/lib/thumb\libg.a(lib_a-svfprintf.o)
 .comment       0x00000000       0x23 c:/nds/devkitpro/devkitarm/bin/../lib/gcc/arm-none-eabi/4.8.2/../../../../arm-none-eabi/lib/thumb\libg.a(lib_a-sysclose.o)
 .comment       0x00000000       0x23 c:/nds/devkitpro/devkitarm/bin/../lib/gcc/arm-none-eabi/4.8.2/../../../../arm-none-eabi/lib/thumb\libg.a(lib_a-syslseek.o)
 .comment       0x00000000       0x23 c:/nds/devkitpro/devkitarm/bin/../lib/gcc/arm-none-eabi/4.8.2/../../../../arm-none-eabi/lib/thumb\libg.a(lib_a-sysopen.o)
 .comment       0x00000000       0x23 c:/nds/devkitpro/devkitarm/bin/../lib/gcc/arm-none-eabi/4.8.2/../../../../arm-none-eabi/lib/thumb\libg.a(lib_a-sysread.o)
 .comment       0x00000000       0x23 c:/nds/devkitpro/devkitarm/bin/../lib/gcc/arm-none-eabi/4.8.2/../../../../arm-none-eabi/lib/thumb\libg.a(lib_a-syswrite.o)
 .comment       0x00000000       0x23 c:/nds/devkitpro/devkitarm/bin/../lib/gcc/arm-none-eabi/4.8.2/../../../../arm-none-eabi/lib/thumb\libg.a(lib_a-time.o)
 .comment       0x00000000       0x23 c:/nds/devkitpro/devkitarm/bin/../lib/gcc/arm-none-eabi/4.8.2/../../../../arm-none-eabi/lib/thumb\libg.a(lib_a-towlower.o)
 .comment       0x00000000       0x23 c:/nds/devkitpro/devkitarm/bin/../lib/gcc/arm-none-eabi/4.8.2/../../../../arm-none-eabi/lib/thumb\libg.a(lib_a-towupper.o)
 .comment       0x00000000       0x23 c:/nds/devkitpro/devkitarm/bin/../lib/gcc/arm-none-eabi/4.8.2/../../../../arm-none-eabi/lib/thumb\libg.a(lib_a-tzlock.o)
 .comment       0x00000000       0x23 c:/nds/devkitpro/devkitarm/bin/../lib/gcc/arm-none-eabi/4.8.2/../../../../arm-none-eabi/lib/thumb\libg.a(lib_a-tzvars.o)
 .comment       0x00000000       0x23 c:/nds/devkitpro/devkitarm/bin/../lib/gcc/arm-none-eabi/4.8.2/../../../../arm-none-eabi/lib/thumb\libg.a(lib_a-ungetc.o)
 .comment       0x00000000       0x23 c:/nds/devkitpro/devkitarm/bin/../lib/gcc/arm-none-eabi/4.8.2/../../../../arm-none-eabi/lib/thumb\libg.a(lib_a-vfiprintf.o)
 .comment       0x00000000       0x23 c:/nds/devkitpro/devkitarm/bin/../lib/gcc/arm-none-eabi/4.8.2/../../../../arm-none-eabi/lib/thumb\libg.a(lib_a-wbuf.o)
 .comment       0x00000000       0x23 c:/nds/devkitpro/devkitarm/bin/../lib/gcc/arm-none-eabi/4.8.2/../../../../arm-none-eabi/lib/thumb\libg.a(lib_a-wcrtomb.o)
 .comment       0x00000000       0x23 c:/nds/devkitpro/devkitarm/bin/../lib/gcc/arm-none-eabi/4.8.2/../../../../arm-none-eabi/lib/thumb\libg.a(lib_a-wcsrtombs.o)
 .comment       0x00000000       0x23 c:/nds/devkitpro/devkitarm/bin/../lib/gcc/arm-none-eabi/4.8.2/../../../../arm-none-eabi/lib/thumb\libg.a(lib_a-wctob.o)
 .comment       0x00000000       0x23 c:/nds/devkitpro/devkitarm/bin/../lib/gcc/arm-none-eabi/4.8.2/../../../../arm-none-eabi/lib/thumb\libg.a(lib_a-wctomb_r.o)
 .comment       0x00000000       0x23 c:/nds/devkitpro/devkitarm/bin/../lib/gcc/arm-none-eabi/4.8.2/../../../../arm-none-eabi/lib/thumb\libg.a(lib_a-wsetup.o)
 .comment       0x00000000       0x23 c:/nds/devkitpro/devkitarm/bin/../lib/gcc/arm-none-eabi/4.8.2/../../../../arm-none-eabi/lib/thumb\libg.a(lib_a-div.o)
 .comment       0x00000000       0x23 c:/nds/devkitpro/devkitarm/bin/../lib/gcc/arm-none-eabi/4.8.2/../../../../arm-none-eabi/lib/thumb\libg.a(lib_a-dtoa.o)
 .comment       0x00000000       0x23 c:/nds/devkitpro/devkitarm/bin/../lib/gcc/arm-none-eabi/4.8.2/../../../../arm-none-eabi/lib/thumb\libg.a(lib_a-flags.o)
 .comment       0x00000000       0x23 c:/nds/devkitpro/devkitarm/bin/../lib/gcc/arm-none-eabi/4.8.2/../../../../arm-none-eabi/lib/thumb\libg.a(lib_a-fputwc.o)
 .comment       0x00000000       0x23 c:/nds/devkitpro/devkitarm/bin/../lib/gcc/arm-none-eabi/4.8.2/../../../../arm-none-eabi/lib/thumb\libg.a(lib_a-getenv_r.o)
 .comment       0x00000000       0x23 c:/nds/devkitpro/devkitarm/bin/../lib/gcc/arm-none-eabi/4.8.2/../../../../arm-none-eabi/lib/thumb\libg.a(lib_a-gettzinfo.o)
 .comment       0x00000000       0x23 c:/nds/devkitpro/devkitarm/bin/../lib/gcc/arm-none-eabi/4.8.2/../../../../arm-none-eabi/lib/thumb\libg.a(lib_a-iswspace.o)
 .comment       0x00000000       0x23 c:/nds/devkitpro/devkitarm/bin/../lib/gcc/arm-none-eabi/4.8.2/../../../../arm-none-eabi/lib/thumb\libg.a(lib_a-jp2uc.o)
 .comment       0x00000000       0x23 c:/nds/devkitpro/devkitarm/bin/../lib/gcc/arm-none-eabi/4.8.2/../../../../arm-none-eabi/lib/thumb\libg.a(lib_a-mbsnrtowcs.o)
 .comment       0x00000000       0x23 c:/nds/devkitpro/devkitarm/bin/../lib/gcc/arm-none-eabi/4.8.2/../../../../arm-none-eabi/lib/thumb\libg.a(lib_a-mprec.o)
 .comment       0x00000000       0x23 c:/nds/devkitpro/devkitarm/bin/../lib/gcc/arm-none-eabi/4.8.2/../../../../arm-none-eabi/lib/thumb\libg.a(lib_a-sccl.o)
 .comment       0x00000000       0x23 c:/nds/devkitpro/devkitarm/bin/../lib/gcc/arm-none-eabi/4.8.2/../../../../arm-none-eabi/lib/thumb\libg.a(lib_a-s_fpclassify.o)
 .comment       0x00000000       0x23 c:/nds/devkitpro/devkitarm/bin/../lib/gcc/arm-none-eabi/4.8.2/../../../../arm-none-eabi/lib/thumb\libg.a(lib_a-strtoll_r.o)
 .comment       0x00000000       0x23 c:/nds/devkitpro/devkitarm/bin/../lib/gcc/arm-none-eabi/4.8.2/../../../../arm-none-eabi/lib/thumb\libg.a(lib_a-strtoull_r.o)
 .comment       0x00000000       0x23 c:/nds/devkitpro/devkitarm/bin/../lib/gcc/arm-none-eabi/4.8.2/../../../../arm-none-eabi/lib/thumb\libg.a(lib_a-strtoul.o)
 .comment       0x00000000       0x23 c:/nds/devkitpro/devkitarm/bin/../lib/gcc/arm-none-eabi/4.8.2/../../../../arm-none-eabi/lib/thumb\libg.a(lib_a-svfiprintf.o)
 .comment       0x00000000       0x23 c:/nds/devkitpro/devkitarm/bin/../lib/gcc/arm-none-eabi/4.8.2/../../../../arm-none-eabi/lib/thumb\libg.a(lib_a-wcsnrtombs.o)
 .comment       0x00000000       0x23 c:/nds/devkitpro/devkitarm/bin/../lib/gcc/arm-none-eabi/4.8.2/../../../../arm-none-eabi/lib/thumb\libg.a(lib_a-environ.o)
 .comment       0x00000000       0x23 c:/nds/devkitpro/devkitarm/bin/../lib/gcc/arm-none-eabi/4.8.2/../../../../arm-none-eabi/lib/thumb\libg.a(lib_a-envlock.o)
 .comment       0x00000000       0x23 c:/nds/devkitpro/devkitarm/bin/../lib/gcc/arm-none-eabi/4.8.2/../../../../arm-none-eabi/lib/thumb\libsysbase.a(iosupport.o)
 .comment       0x00000000       0x23 c:/nds/devkitpro/devkitarm/bin/../lib/gcc/arm-none-eabi/4.8.2/../../../../arm-none-eabi/lib/thumb\libsysbase.a(close.o)
 .comment       0x00000000       0x23 c:/nds/devkitpro/devkitarm/bin/../lib/gcc/arm-none-eabi/4.8.2/../../../../arm-none-eabi/lib/thumb\libsysbase.a(fstat.o)
 .comment       0x00000000       0x23 c:/nds/devkitpro/devkitarm/bin/../lib/gcc/arm-none-eabi/4.8.2/../../../../arm-none-eabi/lib/thumb\libsysbase.a(getpid.o)
 .comment       0x00000000       0x23 c:/nds/devkitpro/devkitarm/bin/../lib/gcc/arm-none-eabi/4.8.2/../../../../arm-none-eabi/lib/thumb\libsysbase.a(isatty.o)
 .comment       0x00000000       0x23 c:/nds/devkitpro/devkitarm/bin/../lib/gcc/arm-none-eabi/4.8.2/../../../../arm-none-eabi/lib/thumb\libsysbase.a(kill.o)
 .comment       0x00000000       0x23 c:/nds/devkitpro/devkitarm/bin/../lib/gcc/arm-none-eabi/4.8.2/../../../../arm-none-eabi/lib/thumb\libsysbase.a(lseek.o)
 .comment       0x00000000       0x23 c:/nds/devkitpro/devkitarm/bin/../lib/gcc/arm-none-eabi/4.8.2/../../../../arm-none-eabi/lib/thumb\libsysbase.a(open.o)
 .comment       0x00000000       0x23 c:/nds/devkitpro/devkitarm/bin/../lib/gcc/arm-none-eabi/4.8.2/../../../../arm-none-eabi/lib/thumb\libsysbase.a(read.o)
 .comment       0x00000000       0x23 c:/nds/devkitpro/devkitarm/bin/../lib/gcc/arm-none-eabi/4.8.2/../../../../arm-none-eabi/lib/thumb\libsysbase.a(sbrk.o)
 .comment       0x00000000       0x23 c:/nds/devkitpro/devkitarm/bin/../lib/gcc/arm-none-eabi/4.8.2/../../../../arm-none-eabi/lib/thumb\libsysbase.a(times.o)
 .comment       0x00000000       0x23 c:/nds/devkitpro/devkitarm/bin/../lib/gcc/arm-none-eabi/4.8.2/../../../../arm-none-eabi/lib/thumb\libsysbase.a(write.o)
 .comment       0x00000000       0x23 c:/nds/devkitpro/devkitarm/bin/../lib/gcc/arm-none-eabi/4.8.2/../../../../arm-none-eabi/lib/thumb\libsysbase.a(_exit.o)
 .comment       0x00000000       0x23 c:/nds/devkitpro/devkitarm/bin/../lib/gcc/arm-none-eabi/4.8.2/../../../../arm-none-eabi/lib/thumb\libsysbase.a(malloc_vars.o)
 .comment       0x00000000       0x23 c:/nds/devkitpro/devkitarm/bin/../lib/gcc/arm-none-eabi/4.8.2/../../../../arm-none-eabi/lib/thumb\libsysbase.a(chdir.o)
 .comment       0x00000000       0x23 c:/nds/devkitpro/devkitarm/bin/../lib/gcc/arm-none-eabi/4.8.2/../../../../arm-none-eabi/lib/thumb\libsysbase.a(build_argv.o)
 .comment       0x00000000       0x23 c:/nds/devkitpro/devkitarm/bin/../lib/gcc/arm-none-eabi/4.8.2/../../../../arm-none-eabi/lib/thumb\libsysbase.a(syscall_support.o)
 .comment       0x00000000       0x23 c:/nds/devkitpro/devkitarm/bin/../lib/gcc/arm-none-eabi/4.8.2/../../../../arm-none-eabi/lib/thumb\libsysbase.a(handle_manager.o)
 .comment       0x00000000       0x23 c:/nds/devkitpro/devkitarm/bin/../lib/gcc/arm-none-eabi/4.8.2/thumb\libgcc.a(bpabi.o)
 .comment       0x00000000       0x23 c:/nds/devkitpro/devkitarm/bin/../lib/gcc/arm-none-eabi/4.8.2/thumb\libgcc.a(_divdi3.o)
 .comment       0x00000000       0x23 c:/nds/devkitpro/devkitarm/bin/../lib/gcc/arm-none-eabi/4.8.2/thumb\libgcc.a(_udivdi3.o)
 .comment       0x00000000       0x23 c:/nds/devkitpro/devkitarm/bin/../lib/gcc/arm-none-eabi/4.8.2/../../../../arm-none-eabi/lib/thumb\libg.a(lib_a-errno.o)
 .comment       0x00000000       0x23 c:/nds/devkitpro/devkitarm/bin/../lib/gcc/arm-none-eabi/4.8.2/thumb/crtend.o

.ARM.attributes
                0x00000000       0x2f
 .ARM.attributes
                0x00000000       0x21 c:/nds/devkitpro/devkitarm/bin/../lib/gcc/arm-none-eabi/4.8.2/../../../../arm-none-eabi/lib/thumb/ds_arm9_crt0.o
 .ARM.attributes
                0x00000021       0x16 c:/nds/devkitpro/devkitarm/bin/../lib/gcc/arm-none-eabi/4.8.2/thumb/crti.o
 .ARM.attributes
                0x00000037       0x30 c:/nds/devkitpro/devkitarm/bin/../lib/gcc/arm-none-eabi/4.8.2/thumb/crtbegin.o
 .ARM.attributes
                0x00000067       0x27 Background.o
 .ARM.attributes
                0x0000008e       0x27 Engine.o
 .ARM.attributes
                0x000000b5       0x27 Input.o
 .ARM.attributes
                0x000000dc       0x27 Menu.o
 .ARM.attributes
                0x00000103       0x27 Palette.o
 .ARM.attributes
                0x0000012a       0x27 Sprite.o
 .ARM.attributes
                0x00000151       0x27 Text.o
 .ARM.attributes
                0x00000178       0x27 main.o
 .ARM.attributes
                0x0000019f       0x29 c:/nds/Projects/Tutoriales/Tutorial1MenuInicial/nflib/lib\libnflib.a(nf_2d.o)
 .ARM.attributes
                0x000001c8       0x29 c:/nds/Projects/Tutoriales/Tutorial1MenuInicial/nflib/lib\libnflib.a(nf_3d.o)
 .ARM.attributes
                0x000001f1       0x29 c:/nds/Projects/Tutoriales/Tutorial1MenuInicial/nflib/lib\libnflib.a(nf_basic.o)
 .ARM.attributes
                0x0000021a       0x29 c:/nds/Projects/Tutoriales/Tutorial1MenuInicial/nflib/lib\libnflib.a(nf_sprite256.o)
 .ARM.attributes
                0x00000243       0x29 c:/nds/Projects/Tutoriales/Tutorial1MenuInicial/nflib/lib\libnflib.a(nf_sprite3d.o)
 .ARM.attributes
                0x0000026c       0x29 c:/nds/Projects/Tutoriales/Tutorial1MenuInicial/nflib/lib\libnflib.a(nf_text.o)
 .ARM.attributes
                0x00000295       0x29 c:/nds/Projects/Tutoriales/Tutorial1MenuInicial/nflib/lib\libnflib.a(nf_tiledbg.o)
 .ARM.attributes
                0x000002be       0x27 c:/nds/devkitPro/libnds/lib\libfilesystem.a(nitrofs.o)
 .ARM.attributes
                0x000002e5       0x27 c:/nds/devkitPro/libnds/lib\libfat.a(libfat.o)
 .ARM.attributes
                0x0000030c       0x27 c:/nds/devkitPro/libnds/lib\libfat.a(partition.o)
 .ARM.attributes
                0x00000333       0x27 c:/nds/devkitPro/libnds/lib\libfat.a(cache.o)
 .ARM.attributes
                0x0000035a       0x27 c:/nds/devkitPro/libnds/lib\libfat.a(directory.o)
 .ARM.attributes
                0x00000381       0x27 c:/nds/devkitPro/libnds/lib\libfat.a(disc.o)
 .ARM.attributes
                0x000003a8       0x27 c:/nds/devkitPro/libnds/lib\libfat.a(fatdir.o)
 .ARM.attributes
                0x000003cf       0x27 c:/nds/devkitPro/libnds/lib\libfat.a(fatfile.o)
 .ARM.attributes
                0x000003f6       0x27 c:/nds/devkitPro/libnds/lib\libfat.a(file_allocation_table.o)
 .ARM.attributes
                0x0000041d       0x27 c:/nds/devkitPro/libnds/lib\libfat.a(filetime.o)
 .ARM.attributes
                0x00000444       0x27 c:/nds/devkitPro/libnds/lib\libfat.a(lock.o)
 .ARM.attributes
                0x0000046b       0x27 c:/nds/devkitPro/libnds/lib\libnds9.a(console.o)
 .ARM.attributes
                0x00000492       0x27 c:/nds/devkitPro/libnds/lib\libnds9.a(keys.o)
 .ARM.attributes
                0x000004b9       0x27 c:/nds/devkitPro/libnds/lib\libnds9.a(sprite.o)
 .ARM.attributes
                0x000004e0       0x27 c:/nds/devkitPro/libnds/lib\libnds9.a(sprite_alloc.o)
 .ARM.attributes
                0x00000507       0x27 c:/nds/devkitPro/libnds/lib\libnds9.a(trig.o)
 .ARM.attributes
                0x0000052e       0x27 c:/nds/devkitPro/libnds/lib\libnds9.a(video.o)
 .ARM.attributes
                0x00000555       0x27 c:/nds/devkitPro/libnds/lib\libnds9.a(videoGL.o)
 .ARM.attributes
                0x0000057c       0x27 c:/nds/devkitPro/libnds/lib\libnds9.a(dldi.o)
 .ARM.attributes
                0x000005a3       0x27 c:/nds/devkitPro/libnds/lib\libnds9.a(dsi_sd.o)
 .ARM.attributes
                0x000005ca       0x27 c:/nds/devkitPro/libnds/lib\libnds9.a(initSystem.o)
 .ARM.attributes
                0x000005f1       0x27 c:/nds/devkitPro/libnds/lib\libnds9.a(card.o)
 .ARM.attributes
                0x00000618       0x27 c:/nds/devkitPro/libnds/lib\libnds9.a(fifosystem.o)
 .ARM.attributes
                0x0000063f       0x27 c:/nds/devkitPro/libnds/lib\libnds9.a(interrupts.o)
 .ARM.attributes
                0x00000666       0x27 c:/nds/devkitPro/libnds/lib\libnds9.a(libnds_exit.arm.o)
 .ARM.attributes
                0x0000068d       0x1b c:/nds/devkitPro/libnds/lib\libnds9.a(dcache.o)
 .ARM.attributes
                0x000006a8       0x1b c:/nds/devkitPro/libnds/lib\libnds9.a(dldi_stub.o)
 .ARM.attributes
                0x000006c3       0x21 c:/nds/devkitPro/libnds/lib\libnds9.a(mpu_setup.o)
 .ARM.attributes
                0x000006e4       0x1b c:/nds/devkitPro/libnds/lib\libnds9.a(biosCalls.o)
 .ARM.attributes
                0x000006ff       0x1b c:/nds/devkitPro/libnds/lib\libnds9.a(debugprint.o)
 .ARM.attributes
                0x0000071a       0x1b c:/nds/devkitPro/libnds/lib\libnds9.a(interruptDispatcher.o)
 .ARM.attributes
                0x00000735       0x21 c:/nds/devkitPro/libnds/lib\libnds9.a(swiSoftReset.o)
 .ARM.attributes
                0x00000756       0x14 c:/nds/devkitPro/libnds/lib\libnds9.a(default_font.bin.o)
 .ARM.attributes
                0x0000076a       0x27 c:/nds/devkitPro/libnds/lib\libnds9.a(background.o)
 .ARM.attributes
                0x00000791       0x27 c:/nds/devkitPro/libnds/lib\libnds9.a(dynamicArray.o)
 .ARM.attributes
                0x000007b8       0x27 c:/nds/devkitPro/libnds/lib\libnds9.a(system.o)
 .ARM.attributes
                0x000007df       0x30 c:/nds/devkitpro/devkitarm/bin/../lib/gcc/arm-none-eabi/4.8.2/../../../../arm-none-eabi/lib/thumb\libstdc++.a(new_op.o)
 .ARM.attributes
                0x0000080f       0x30 c:/nds/devkitpro/devkitarm/bin/../lib/gcc/arm-none-eabi/4.8.2/../../../../arm-none-eabi/lib/thumb\libstdc++.a(eh_call.o)
 .ARM.attributes
                0x0000083f       0x30 c:/nds/devkitpro/devkitarm/bin/../lib/gcc/arm-none-eabi/4.8.2/../../../../arm-none-eabi/lib/thumb\libstdc++.a(eh_personality.o)
 .ARM.attributes
                0x0000086f       0x30 c:/nds/devkitpro/devkitarm/bin/../lib/gcc/arm-none-eabi/4.8.2/../../../../arm-none-eabi/lib/thumb\libstdc++.a(eh_terminate.o)
 .ARM.attributes
                0x0000089f       0x30 c:/nds/devkitpro/devkitarm/bin/../lib/gcc/arm-none-eabi/4.8.2/../../../../arm-none-eabi/lib/thumb\libstdc++.a(eh_exception.o)
 .ARM.attributes
                0x000008cf       0x30 c:/nds/devkitpro/devkitarm/bin/../lib/gcc/arm-none-eabi/4.8.2/../../../../arm-none-eabi/lib/thumb\libstdc++.a(eh_alloc.o)
 .ARM.attributes
                0x000008ff       0x30 c:/nds/devkitpro/devkitarm/bin/../lib/gcc/arm-none-eabi/4.8.2/../../../../arm-none-eabi/lib/thumb\libstdc++.a(bad_alloc.o)
 .ARM.attributes
                0x0000092f       0x30 c:/nds/devkitpro/devkitarm/bin/../lib/gcc/arm-none-eabi/4.8.2/../../../../arm-none-eabi/lib/thumb\libstdc++.a(class_type_info.o)
 .ARM.attributes
                0x0000095f       0x30 c:/nds/devkitpro/devkitarm/bin/../lib/gcc/arm-none-eabi/4.8.2/../../../../arm-none-eabi/lib/thumb\libstdc++.a(new_handler.o)
 .ARM.attributes
                0x0000098f       0x30 c:/nds/devkitpro/devkitarm/bin/../lib/gcc/arm-none-eabi/4.8.2/../../../../arm-none-eabi/lib/thumb\libstdc++.a(eh_arm.o)
 .ARM.attributes
                0x000009bf       0x30 c:/nds/devkitpro/devkitarm/bin/../lib/gcc/arm-none-eabi/4.8.2/../../../../arm-none-eabi/lib/thumb\libstdc++.a(eh_throw.o)
 .ARM.attributes
                0x000009ef       0x30 c:/nds/devkitpro/devkitarm/bin/../lib/gcc/arm-none-eabi/4.8.2/../../../../arm-none-eabi/lib/thumb\libstdc++.a(pure.o)
 .ARM.attributes
                0x00000a1f       0x30 c:/nds/devkitpro/devkitarm/bin/../lib/gcc/arm-none-eabi/4.8.2/../../../../arm-none-eabi/lib/thumb\libstdc++.a(eh_globals.o)
 .ARM.attributes
                0x00000a4f       0x30 c:/nds/devkitpro/devkitarm/bin/../lib/gcc/arm-none-eabi/4.8.2/../../../../arm-none-eabi/lib/thumb\libstdc++.a(eh_catch.o)
 .ARM.attributes
                0x00000a7f       0x30 c:/nds/devkitpro/devkitarm/bin/../lib/gcc/arm-none-eabi/4.8.2/../../../../arm-none-eabi/lib/thumb\libstdc++.a(si_class_type_info.o)
 .ARM.attributes
                0x00000aaf       0x30 c:/nds/devkitpro/devkitarm/bin/../lib/gcc/arm-none-eabi/4.8.2/../../../../arm-none-eabi/lib/thumb\libstdc++.a(eh_unex_handler.o)
 .ARM.attributes
                0x00000adf       0x30 c:/nds/devkitpro/devkitarm/bin/../lib/gcc/arm-none-eabi/4.8.2/../../../../arm-none-eabi/lib/thumb\libstdc++.a(tinfo.o)
 .ARM.attributes
                0x00000b0f       0x30 c:/nds/devkitpro/devkitarm/bin/../lib/gcc/arm-none-eabi/4.8.2/../../../../arm-none-eabi/lib/thumb\libstdc++.a(eh_term_handler.o)
 .ARM.attributes
                0x00000b3f       0x30 c:/nds/devkitpro/devkitarm/bin/../lib/gcc/arm-none-eabi/4.8.2/../../../../arm-none-eabi/lib/thumb\libstdc++.a(del_op.o)
 .ARM.attributes
                0x00000b6f       0x30 c:/nds/devkitpro/devkitarm/bin/../lib/gcc/arm-none-eabi/4.8.2/../../../../arm-none-eabi/lib/thumb\libstdc++.a(vterminate.o)
 .ARM.attributes
                0x00000b9f       0x30 c:/nds/devkitpro/devkitarm/bin/../lib/gcc/arm-none-eabi/4.8.2/../../../../arm-none-eabi/lib/thumb\libstdc++.a(eh_type.o)
 .ARM.attributes
                0x00000bcf       0x30 c:/nds/devkitpro/devkitarm/bin/../lib/gcc/arm-none-eabi/4.8.2/../../../../arm-none-eabi/lib/thumb\libstdc++.a(cp-demangle.o)
 .ARM.attributes
                0x00000bff       0x18 c:/nds/devkitpro/devkitarm/bin/../lib/gcc/arm-none-eabi/4.8.2/thumb\libgcc.a(_udivsi3.o)
 .ARM.attributes
                0x00000c17       0x18 c:/nds/devkitpro/devkitarm/bin/../lib/gcc/arm-none-eabi/4.8.2/thumb\libgcc.a(_divsi3.o)
 .ARM.attributes
                0x00000c2f       0x16 c:/nds/devkitpro/devkitarm/bin/../lib/gcc/arm-none-eabi/4.8.2/thumb\libgcc.a(_dvmd_tls.o)
 .ARM.attributes
                0x00000c45       0x30 c:/nds/devkitpro/devkitarm/bin/../lib/gcc/arm-none-eabi/4.8.2/thumb\libgcc.a(_muldi3.o)
 .ARM.attributes
                0x00000c75       0x30 c:/nds/devkitpro/devkitarm/bin/../lib/gcc/arm-none-eabi/4.8.2/thumb\libgcc.a(unwind-arm.o)
 .ARM.attributes
                0x00000ca5       0x1c c:/nds/devkitpro/devkitarm/bin/../lib/gcc/arm-none-eabi/4.8.2/thumb\libgcc.a(libunwind.o)
 .ARM.attributes
                0x00000cc1       0x30 c:/nds/devkitpro/devkitarm/bin/../lib/gcc/arm-none-eabi/4.8.2/thumb\libgcc.a(pr-support.o)
 .ARM.attributes
                0x00000cf1       0x30 c:/nds/devkitpro/devkitarm/bin/../lib/gcc/arm-none-eabi/4.8.2/../../../../arm-none-eabi/lib/thumb\libg.a(lib_a-abort.o)
 .ARM.attributes
                0x00000d21       0x30 c:/nds/devkitpro/devkitarm/bin/../lib/gcc/arm-none-eabi/4.8.2/../../../../arm-none-eabi/lib/thumb\libg.a(lib_a-bsearch.o)
 .ARM.attributes
                0x00000d51       0x30 c:/nds/devkitpro/devkitarm/bin/../lib/gcc/arm-none-eabi/4.8.2/../../../../arm-none-eabi/lib/thumb\libg.a(lib_a-calloc.o)
 .ARM.attributes
                0x00000d81       0x30 c:/nds/devkitpro/devkitarm/bin/../lib/gcc/arm-none-eabi/4.8.2/../../../../arm-none-eabi/lib/thumb\libg.a(lib_a-callocr.o)
 .ARM.attributes
                0x00000db1       0x30 c:/nds/devkitpro/devkitarm/bin/../lib/gcc/arm-none-eabi/4.8.2/../../../../arm-none-eabi/lib/thumb\libg.a(lib_a-ctype_.o)
 .ARM.attributes
                0x00000de1       0x30 c:/nds/devkitpro/devkitarm/bin/../lib/gcc/arm-none-eabi/4.8.2/../../../../arm-none-eabi/lib/thumb\libg.a(lib_a-fclose.o)
 .ARM.attributes
                0x00000e11       0x30 c:/nds/devkitpro/devkitarm/bin/../lib/gcc/arm-none-eabi/4.8.2/../../../../arm-none-eabi/lib/thumb\libg.a(lib_a-fflush.o)
 .ARM.attributes
                0x00000e41       0x30 c:/nds/devkitpro/devkitarm/bin/../lib/gcc/arm-none-eabi/4.8.2/../../../../arm-none-eabi/lib/thumb\libg.a(lib_a-findfp.o)
 .ARM.attributes
                0x00000e71       0x30 c:/nds/devkitpro/devkitarm/bin/../lib/gcc/arm-none-eabi/4.8.2/../../../../arm-none-eabi/lib/thumb\libg.a(lib_a-fopen.o)
 .ARM.attributes
                0x00000ea1       0x30 c:/nds/devkitpro/devkitarm/bin/../lib/gcc/arm-none-eabi/4.8.2/../../../../arm-none-eabi/lib/thumb\libg.a(lib_a-fputc.o)
 .ARM.attributes
                0x00000ed1       0x30 c:/nds/devkitpro/devkitarm/bin/../lib/gcc/arm-none-eabi/4.8.2/../../../../arm-none-eabi/lib/thumb\libg.a(lib_a-fputs.o)
 .ARM.attributes
                0x00000f01       0x30 c:/nds/devkitpro/devkitarm/bin/../lib/gcc/arm-none-eabi/4.8.2/../../../../arm-none-eabi/lib/thumb\libg.a(lib_a-fread.o)
 .ARM.attributes
                0x00000f31       0x30 c:/nds/devkitpro/devkitarm/bin/../lib/gcc/arm-none-eabi/4.8.2/../../../../arm-none-eabi/lib/thumb\libg.a(lib_a-freer.o)
 .ARM.attributes
                0x00000f61       0x30 c:/nds/devkitpro/devkitarm/bin/../lib/gcc/arm-none-eabi/4.8.2/../../../../arm-none-eabi/lib/thumb\libg.a(lib_a-fseek.o)
 .ARM.attributes
                0x00000f91       0x30 c:/nds/devkitpro/devkitarm/bin/../lib/gcc/arm-none-eabi/4.8.2/../../../../arm-none-eabi/lib/thumb\libg.a(lib_a-fseeko.o)
 .ARM.attributes
                0x00000fc1       0x30 c:/nds/devkitpro/devkitarm/bin/../lib/gcc/arm-none-eabi/4.8.2/../../../../arm-none-eabi/lib/thumb\libg.a(lib_a-ftell.o)
 .ARM.attributes
                0x00000ff1       0x30 c:/nds/devkitpro/devkitarm/bin/../lib/gcc/arm-none-eabi/4.8.2/../../../../arm-none-eabi/lib/thumb\libg.a(lib_a-ftello.o)
 .ARM.attributes
                0x00001021       0x30 c:/nds/devkitpro/devkitarm/bin/../lib/gcc/arm-none-eabi/4.8.2/../../../../arm-none-eabi/lib/thumb\libg.a(lib_a-fvwrite.o)
 .ARM.attributes
                0x00001051       0x30 c:/nds/devkitpro/devkitarm/bin/../lib/gcc/arm-none-eabi/4.8.2/../../../../arm-none-eabi/lib/thumb\libg.a(lib_a-fwalk.o)
 .ARM.attributes
                0x00001081       0x30 c:/nds/devkitpro/devkitarm/bin/../lib/gcc/arm-none-eabi/4.8.2/../../../../arm-none-eabi/lib/thumb\libg.a(lib_a-fwrite.o)
 .ARM.attributes
                0x000010b1       0x30 c:/nds/devkitpro/devkitarm/bin/../lib/gcc/arm-none-eabi/4.8.2/../../../../arm-none-eabi/lib/thumb\libg.a(lib_a-impure.o)
 .ARM.attributes
                0x000010e1       0x30 c:/nds/devkitpro/devkitarm/bin/../lib/gcc/arm-none-eabi/4.8.2/../../../../arm-none-eabi/lib/thumb\libg.a(lib_a-init.o)
 .ARM.attributes
                0x00001111       0x30 c:/nds/devkitpro/devkitarm/bin/../lib/gcc/arm-none-eabi/4.8.2/../../../../arm-none-eabi/lib/thumb\libg.a(lib_a-iprintf.o)
 .ARM.attributes
                0x00001141       0x30 c:/nds/devkitpro/devkitarm/bin/../lib/gcc/arm-none-eabi/4.8.2/../../../../arm-none-eabi/lib/thumb\libg.a(lib_a-lcltime_r.o)
 .ARM.attributes
                0x00001171       0x30 c:/nds/devkitpro/devkitarm/bin/../lib/gcc/arm-none-eabi/4.8.2/../../../../arm-none-eabi/lib/thumb\libg.a(lib_a-locale.o)
 .ARM.attributes
                0x000011a1       0x30 c:/nds/devkitpro/devkitarm/bin/../lib/gcc/arm-none-eabi/4.8.2/../../../../arm-none-eabi/lib/thumb\libg.a(lib_a-makebuf.o)
 .ARM.attributes
                0x000011d1       0x30 c:/nds/devkitpro/devkitarm/bin/../lib/gcc/arm-none-eabi/4.8.2/../../../../arm-none-eabi/lib/thumb\libg.a(lib_a-malloc.o)
 .ARM.attributes
                0x00001201       0x30 c:/nds/devkitpro/devkitarm/bin/../lib/gcc/arm-none-eabi/4.8.2/../../../../arm-none-eabi/lib/thumb\libg.a(lib_a-mallocr.o)
 .ARM.attributes
                0x00001231       0x30 c:/nds/devkitpro/devkitarm/bin/../lib/gcc/arm-none-eabi/4.8.2/../../../../arm-none-eabi/lib/thumb\libg.a(lib_a-mbrtowc.o)
 .ARM.attributes
                0x00001261       0x30 c:/nds/devkitpro/devkitarm/bin/../lib/gcc/arm-none-eabi/4.8.2/../../../../arm-none-eabi/lib/thumb\libg.a(lib_a-mbsrtowcs.o)
 .ARM.attributes
                0x00001291       0x30 c:/nds/devkitpro/devkitarm/bin/../lib/gcc/arm-none-eabi/4.8.2/../../../../arm-none-eabi/lib/thumb\libg.a(lib_a-mbtowc_r.o)
 .ARM.attributes
                0x000012c1       0x30 c:/nds/devkitpro/devkitarm/bin/../lib/gcc/arm-none-eabi/4.8.2/../../../../arm-none-eabi/lib/thumb\libg.a(lib_a-memchr-stub.o)
 .ARM.attributes
                0x000012f1       0x30 c:/nds/devkitpro/devkitarm/bin/../lib/gcc/arm-none-eabi/4.8.2/../../../../arm-none-eabi/lib/thumb\libg.a(lib_a-memcmp.o)
 .ARM.attributes
                0x00001321       0x30 c:/nds/devkitpro/devkitarm/bin/../lib/gcc/arm-none-eabi/4.8.2/../../../../arm-none-eabi/lib/thumb\libg.a(lib_a-memcpy-stub.o)
 .ARM.attributes
                0x00001351       0x30 c:/nds/devkitpro/devkitarm/bin/../lib/gcc/arm-none-eabi/4.8.2/../../../../arm-none-eabi/lib/thumb\libg.a(lib_a-memmove.o)
 .ARM.attributes
                0x00001381       0x30 c:/nds/devkitpro/devkitarm/bin/../lib/gcc/arm-none-eabi/4.8.2/../../../../arm-none-eabi/lib/thumb\libg.a(lib_a-memset.o)
 .ARM.attributes
                0x000013b1       0x30 c:/nds/devkitpro/devkitarm/bin/../lib/gcc/arm-none-eabi/4.8.2/../../../../arm-none-eabi/lib/thumb\libg.a(lib_a-mktime.o)
 .ARM.attributes
                0x000013e1       0x30 c:/nds/devkitpro/devkitarm/bin/../lib/gcc/arm-none-eabi/4.8.2/../../../../arm-none-eabi/lib/thumb\libg.a(lib_a-mktm_r.o)
 .ARM.attributes
                0x00001411       0x30 c:/nds/devkitpro/devkitarm/bin/../lib/gcc/arm-none-eabi/4.8.2/../../../../arm-none-eabi/lib/thumb\libg.a(lib_a-mlock.o)
 .ARM.attributes
                0x00001441       0x30 c:/nds/devkitpro/devkitarm/bin/../lib/gcc/arm-none-eabi/4.8.2/../../../../arm-none-eabi/lib/thumb\libg.a(lib_a-putc.o)
 .ARM.attributes
                0x00001471       0x30 c:/nds/devkitpro/devkitarm/bin/../lib/gcc/arm-none-eabi/4.8.2/../../../../arm-none-eabi/lib/thumb\libg.a(lib_a-realloc.o)
 .ARM.attributes
                0x000014a1       0x30 c:/nds/devkitpro/devkitarm/bin/../lib/gcc/arm-none-eabi/4.8.2/../../../../arm-none-eabi/lib/thumb\libg.a(lib_a-reallocr.o)
 .ARM.attributes
                0x000014d1       0x30 c:/nds/devkitpro/devkitarm/bin/../lib/gcc/arm-none-eabi/4.8.2/../../../../arm-none-eabi/lib/thumb\libg.a(lib_a-refill.o)
 .ARM.attributes
                0x00001501       0x30 c:/nds/devkitpro/devkitarm/bin/../lib/gcc/arm-none-eabi/4.8.2/../../../../arm-none-eabi/lib/thumb\libg.a(lib_a-rewind.o)
 .ARM.attributes
                0x00001531       0x30 c:/nds/devkitpro/devkitarm/bin/../lib/gcc/arm-none-eabi/4.8.2/../../../../arm-none-eabi/lib/thumb\libg.a(lib_a-setvbuf.o)
 .ARM.attributes
                0x00001561       0x30 c:/nds/devkitpro/devkitarm/bin/../lib/gcc/arm-none-eabi/4.8.2/../../../../arm-none-eabi/lib/thumb\libg.a(lib_a-signal.o)
 .ARM.attributes
                0x00001591       0x30 c:/nds/devkitpro/devkitarm/bin/../lib/gcc/arm-none-eabi/4.8.2/../../../../arm-none-eabi/lib/thumb\libg.a(lib_a-siscanf.o)
 .ARM.attributes
                0x000015c1       0x30 c:/nds/devkitpro/devkitarm/bin/../lib/gcc/arm-none-eabi/4.8.2/../../../../arm-none-eabi/lib/thumb\libg.a(lib_a-sprintf.o)
 .ARM.attributes
                0x000015f1       0x30 c:/nds/devkitpro/devkitarm/bin/../lib/gcc/arm-none-eabi/4.8.2/../../../../arm-none-eabi/lib/thumb\libg.a(lib_a-stdio.o)
 .ARM.attributes
                0x00001621       0x30 c:/nds/devkitpro/devkitarm/bin/../lib/gcc/arm-none-eabi/4.8.2/../../../../arm-none-eabi/lib/thumb\libg.a(lib_a-stpcpy.o)
 .ARM.attributes
                0x00001651       0x30 c:/nds/devkitpro/devkitarm/bin/../lib/gcc/arm-none-eabi/4.8.2/../../../../arm-none-eabi/lib/thumb\libg.a(lib_a-strcasecmp.o)
 .ARM.attributes
                0x00001681       0x30 c:/nds/devkitpro/devkitarm/bin/../lib/gcc/arm-none-eabi/4.8.2/../../../../arm-none-eabi/lib/thumb\libg.a(lib_a-strcat.o)
 .ARM.attributes
                0x000016b1       0x30 c:/nds/devkitpro/devkitarm/bin/../lib/gcc/arm-none-eabi/4.8.2/../../../../arm-none-eabi/lib/thumb\libg.a(lib_a-strchr.o)
 .ARM.attributes
                0x000016e1       0x1c c:/nds/devkitpro/devkitarm/bin/../lib/gcc/arm-none-eabi/4.8.2/../../../../arm-none-eabi/lib/thumb\libg.a(lib_a-strcmp.o)
 .ARM.attributes
                0x000016fd       0x30 c:/nds/devkitpro/devkitarm/bin/../lib/gcc/arm-none-eabi/4.8.2/../../../../arm-none-eabi/lib/thumb\libg.a(lib_a-strcpy.o)
 .ARM.attributes
                0x0000172d       0x30 c:/nds/devkitpro/devkitarm/bin/../lib/gcc/arm-none-eabi/4.8.2/../../../../arm-none-eabi/lib/thumb\libg.a(lib_a-strdup.o)
 .ARM.attributes
                0x0000175d       0x30 c:/nds/devkitpro/devkitarm/bin/../lib/gcc/arm-none-eabi/4.8.2/../../../../arm-none-eabi/lib/thumb\libg.a(lib_a-strdup_r.o)
 .ARM.attributes
                0x0000178d       0x30 c:/nds/devkitpro/devkitarm/bin/../lib/gcc/arm-none-eabi/4.8.2/../../../../arm-none-eabi/lib/thumb\libg.a(lib_a-strlcpy.o)
 .ARM.attributes
                0x000017bd       0x30 c:/nds/devkitpro/devkitarm/bin/../lib/gcc/arm-none-eabi/4.8.2/../../../../arm-none-eabi/lib/thumb\libg.a(lib_a-strlen.o)
 .ARM.attributes
                0x000017ed       0x30 c:/nds/devkitpro/devkitarm/bin/../lib/gcc/arm-none-eabi/4.8.2/../../../../arm-none-eabi/lib/thumb\libg.a(lib_a-strncasecmp.o)
 .ARM.attributes
                0x0000181d       0x30 c:/nds/devkitpro/devkitarm/bin/../lib/gcc/arm-none-eabi/4.8.2/../../../../arm-none-eabi/lib/thumb\libg.a(lib_a-strncmp.o)
 .ARM.attributes
                0x0000184d       0x30 c:/nds/devkitpro/devkitarm/bin/../lib/gcc/arm-none-eabi/4.8.2/../../../../arm-none-eabi/lib/thumb\libg.a(lib_a-strncpy.o)
 .ARM.attributes
                0x0000187d       0x30 c:/nds/devkitpro/devkitarm/bin/../lib/gcc/arm-none-eabi/4.8.2/../../../../arm-none-eabi/lib/thumb\libg.a(lib_a-strnlen.o)
 .ARM.attributes
                0x000018ad       0x30 c:/nds/devkitpro/devkitarm/bin/../lib/gcc/arm-none-eabi/4.8.2/../../../../arm-none-eabi/lib/thumb\libg.a(lib_a-strpbrk.o)
 .ARM.attributes
                0x000018dd       0x30 c:/nds/devkitpro/devkitarm/bin/../lib/gcc/arm-none-eabi/4.8.2/../../../../arm-none-eabi/lib/thumb\libg.a(lib_a-strrchr.o)
 .ARM.attributes
                0x0000190d       0x30 c:/nds/devkitpro/devkitarm/bin/../lib/gcc/arm-none-eabi/4.8.2/../../../../arm-none-eabi/lib/thumb\libg.a(lib_a-strtol.o)
 .ARM.attributes
                0x0000193d       0x30 c:/nds/devkitpro/devkitarm/bin/../lib/gcc/arm-none-eabi/4.8.2/../../../../arm-none-eabi/lib/thumb\libg.a(lib_a-svfiscanf.o)
 .ARM.attributes
                0x0000196d       0x30 c:/nds/devkitpro/devkitarm/bin/../lib/gcc/arm-none-eabi/4.8.2/../../../../arm-none-eabi/lib/thumb\libg.a(lib_a-svfprintf.o)
 .ARM.attributes
                0x0000199d       0x30 c:/nds/devkitpro/devkitarm/bin/../lib/gcc/arm-none-eabi/4.8.2/../../../../arm-none-eabi/lib/thumb\libg.a(lib_a-sysclose.o)
 .ARM.attributes
                0x000019cd       0x30 c:/nds/devkitpro/devkitarm/bin/../lib/gcc/arm-none-eabi/4.8.2/../../../../arm-none-eabi/lib/thumb\libg.a(lib_a-syslseek.o)
 .ARM.attributes
                0x000019fd       0x30 c:/nds/devkitpro/devkitarm/bin/../lib/gcc/arm-none-eabi/4.8.2/../../../../arm-none-eabi/lib/thumb\libg.a(lib_a-sysopen.o)
 .ARM.attributes
                0x00001a2d       0x30 c:/nds/devkitpro/devkitarm/bin/../lib/gcc/arm-none-eabi/4.8.2/../../../../arm-none-eabi/lib/thumb\libg.a(lib_a-sysread.o)
 .ARM.attributes
                0x00001a5d       0x30 c:/nds/devkitpro/devkitarm/bin/../lib/gcc/arm-none-eabi/4.8.2/../../../../arm-none-eabi/lib/thumb\libg.a(lib_a-syswrite.o)
 .ARM.attributes
                0x00001a8d       0x30 c:/nds/devkitpro/devkitarm/bin/../lib/gcc/arm-none-eabi/4.8.2/../../../../arm-none-eabi/lib/thumb\libg.a(lib_a-time.o)
 .ARM.attributes
                0x00001abd       0x30 c:/nds/devkitpro/devkitarm/bin/../lib/gcc/arm-none-eabi/4.8.2/../../../../arm-none-eabi/lib/thumb\libg.a(lib_a-towlower.o)
 .ARM.attributes
                0x00001aed       0x30 c:/nds/devkitpro/devkitarm/bin/../lib/gcc/arm-none-eabi/4.8.2/../../../../arm-none-eabi/lib/thumb\libg.a(lib_a-towupper.o)
 .ARM.attributes
                0x00001b1d       0x30 c:/nds/devkitpro/devkitarm/bin/../lib/gcc/arm-none-eabi/4.8.2/../../../../arm-none-eabi/lib/thumb\libg.a(lib_a-tzlock.o)
 .ARM.attributes
                0x00001b4d       0x30 c:/nds/devkitpro/devkitarm/bin/../lib/gcc/arm-none-eabi/4.8.2/../../../../arm-none-eabi/lib/thumb\libg.a(lib_a-tzvars.o)
 .ARM.attributes
                0x00001b7d       0x30 c:/nds/devkitpro/devkitarm/bin/../lib/gcc/arm-none-eabi/4.8.2/../../../../arm-none-eabi/lib/thumb\libg.a(lib_a-ungetc.o)
 .ARM.attributes
                0x00001bad       0x30 c:/nds/devkitpro/devkitarm/bin/../lib/gcc/arm-none-eabi/4.8.2/../../../../arm-none-eabi/lib/thumb\libg.a(lib_a-vfiprintf.o)
 .ARM.attributes
                0x00001bdd       0x30 c:/nds/devkitpro/devkitarm/bin/../lib/gcc/arm-none-eabi/4.8.2/../../../../arm-none-eabi/lib/thumb\libg.a(lib_a-wbuf.o)
 .ARM.attributes
                0x00001c0d       0x30 c:/nds/devkitpro/devkitarm/bin/../lib/gcc/arm-none-eabi/4.8.2/../../../../arm-none-eabi/lib/thumb\libg.a(lib_a-wcrtomb.o)
 .ARM.attributes
                0x00001c3d       0x30 c:/nds/devkitpro/devkitarm/bin/../lib/gcc/arm-none-eabi/4.8.2/../../../../arm-none-eabi/lib/thumb\libg.a(lib_a-wcsrtombs.o)
 .ARM.attributes
                0x00001c6d       0x30 c:/nds/devkitpro/devkitarm/bin/../lib/gcc/arm-none-eabi/4.8.2/../../../../arm-none-eabi/lib/thumb\libg.a(lib_a-wctob.o)
 .ARM.attributes
                0x00001c9d       0x30 c:/nds/devkitpro/devkitarm/bin/../lib/gcc/arm-none-eabi/4.8.2/../../../../arm-none-eabi/lib/thumb\libg.a(lib_a-wctomb_r.o)
 .ARM.attributes
                0x00001ccd       0x30 c:/nds/devkitpro/devkitarm/bin/../lib/gcc/arm-none-eabi/4.8.2/../../../../arm-none-eabi/lib/thumb\libg.a(lib_a-wsetup.o)
 .ARM.attributes
                0x00001cfd       0x30 c:/nds/devkitpro/devkitarm/bin/../lib/gcc/arm-none-eabi/4.8.2/../../../../arm-none-eabi/lib/thumb\libg.a(lib_a-div.o)
 .ARM.attributes
                0x00001d2d       0x30 c:/nds/devkitpro/devkitarm/bin/../lib/gcc/arm-none-eabi/4.8.2/../../../../arm-none-eabi/lib/thumb\libg.a(lib_a-dtoa.o)
 .ARM.attributes
                0x00001d5d       0x30 c:/nds/devkitpro/devkitarm/bin/../lib/gcc/arm-none-eabi/4.8.2/../../../../arm-none-eabi/lib/thumb\libg.a(lib_a-flags.o)
 .ARM.attributes
                0x00001d8d       0x30 c:/nds/devkitpro/devkitarm/bin/../lib/gcc/arm-none-eabi/4.8.2/../../../../arm-none-eabi/lib/thumb\libg.a(lib_a-fputwc.o)
 .ARM.attributes
                0x00001dbd       0x30 c:/nds/devkitpro/devkitarm/bin/../lib/gcc/arm-none-eabi/4.8.2/../../../../arm-none-eabi/lib/thumb\libg.a(lib_a-getenv_r.o)
 .ARM.attributes
                0x00001ded       0x30 c:/nds/devkitpro/devkitarm/bin/../lib/gcc/arm-none-eabi/4.8.2/../../../../arm-none-eabi/lib/thumb\libg.a(lib_a-gettzinfo.o)
 .ARM.attributes
                0x00001e1d       0x30 c:/nds/devkitpro/devkitarm/bin/../lib/gcc/arm-none-eabi/4.8.2/../../../../arm-none-eabi/lib/thumb\libg.a(lib_a-iswspace.o)
 .ARM.attributes
                0x00001e4d       0x30 c:/nds/devkitpro/devkitarm/bin/../lib/gcc/arm-none-eabi/4.8.2/../../../../arm-none-eabi/lib/thumb\libg.a(lib_a-jp2uc.o)
 .ARM.attributes
                0x00001e7d       0x30 c:/nds/devkitpro/devkitarm/bin/../lib/gcc/arm-none-eabi/4.8.2/../../../../arm-none-eabi/lib/thumb\libg.a(lib_a-mbsnrtowcs.o)
 .ARM.attributes
                0x00001ead       0x30 c:/nds/devkitpro/devkitarm/bin/../lib/gcc/arm-none-eabi/4.8.2/../../../../arm-none-eabi/lib/thumb\libg.a(lib_a-mprec.o)
 .ARM.attributes
                0x00001edd       0x30 c:/nds/devkitpro/devkitarm/bin/../lib/gcc/arm-none-eabi/4.8.2/../../../../arm-none-eabi/lib/thumb\libg.a(lib_a-sccl.o)
 .ARM.attributes
                0x00001f0d       0x30 c:/nds/devkitpro/devkitarm/bin/../lib/gcc/arm-none-eabi/4.8.2/../../../../arm-none-eabi/lib/thumb\libg.a(lib_a-s_fpclassify.o)
 .ARM.attributes
                0x00001f3d       0x30 c:/nds/devkitpro/devkitarm/bin/../lib/gcc/arm-none-eabi/4.8.2/../../../../arm-none-eabi/lib/thumb\libg.a(lib_a-strtoll_r.o)
 .ARM.attributes
                0x00001f6d       0x30 c:/nds/devkitpro/devkitarm/bin/../lib/gcc/arm-none-eabi/4.8.2/../../../../arm-none-eabi/lib/thumb\libg.a(lib_a-strtoull_r.o)
 .ARM.attributes
                0x00001f9d       0x30 c:/nds/devkitpro/devkitarm/bin/../lib/gcc/arm-none-eabi/4.8.2/../../../../arm-none-eabi/lib/thumb\libg.a(lib_a-strtoul.o)
 .ARM.attributes
                0x00001fcd       0x30 c:/nds/devkitpro/devkitarm/bin/../lib/gcc/arm-none-eabi/4.8.2/../../../../arm-none-eabi/lib/thumb\libg.a(lib_a-svfiprintf.o)
 .ARM.attributes
                0x00001ffd       0x30 c:/nds/devkitpro/devkitarm/bin/../lib/gcc/arm-none-eabi/4.8.2/../../../../arm-none-eabi/lib/thumb\libg.a(lib_a-wcsnrtombs.o)
 .ARM.attributes
                0x0000202d       0x30 c:/nds/devkitpro/devkitarm/bin/../lib/gcc/arm-none-eabi/4.8.2/../../../../arm-none-eabi/lib/thumb\libg.a(lib_a-environ.o)
 .ARM.attributes
                0x0000205d       0x30 c:/nds/devkitpro/devkitarm/bin/../lib/gcc/arm-none-eabi/4.8.2/../../../../arm-none-eabi/lib/thumb\libg.a(lib_a-envlock.o)
 .ARM.attributes
                0x0000208d       0x30 c:/nds/devkitpro/devkitarm/bin/../lib/gcc/arm-none-eabi/4.8.2/../../../../arm-none-eabi/lib/thumb\libsysbase.a(iosupport.o)
 .ARM.attributes
                0x000020bd       0x30 c:/nds/devkitpro/devkitarm/bin/../lib/gcc/arm-none-eabi/4.8.2/../../../../arm-none-eabi/lib/thumb\libsysbase.a(close.o)
 .ARM.attributes
                0x000020ed       0x30 c:/nds/devkitpro/devkitarm/bin/../lib/gcc/arm-none-eabi/4.8.2/../../../../arm-none-eabi/lib/thumb\libsysbase.a(fstat.o)
 .ARM.attributes
                0x0000211d       0x30 c:/nds/devkitpro/devkitarm/bin/../lib/gcc/arm-none-eabi/4.8.2/../../../../arm-none-eabi/lib/thumb\libsysbase.a(getpid.o)
 .ARM.attributes
                0x0000214d       0x30 c:/nds/devkitpro/devkitarm/bin/../lib/gcc/arm-none-eabi/4.8.2/../../../../arm-none-eabi/lib/thumb\libsysbase.a(isatty.o)
 .ARM.attributes
                0x0000217d       0x30 c:/nds/devkitpro/devkitarm/bin/../lib/gcc/arm-none-eabi/4.8.2/../../../../arm-none-eabi/lib/thumb\libsysbase.a(kill.o)
 .ARM.attributes
                0x000021ad       0x30 c:/nds/devkitpro/devkitarm/bin/../lib/gcc/arm-none-eabi/4.8.2/../../../../arm-none-eabi/lib/thumb\libsysbase.a(lseek.o)
 .ARM.attributes
                0x000021dd       0x30 c:/nds/devkitpro/devkitarm/bin/../lib/gcc/arm-none-eabi/4.8.2/../../../../arm-none-eabi/lib/thumb\libsysbase.a(open.o)
 .ARM.attributes
                0x0000220d       0x30 c:/nds/devkitpro/devkitarm/bin/../lib/gcc/arm-none-eabi/4.8.2/../../../../arm-none-eabi/lib/thumb\libsysbase.a(read.o)
 .ARM.attributes
                0x0000223d       0x30 c:/nds/devkitpro/devkitarm/bin/../lib/gcc/arm-none-eabi/4.8.2/../../../../arm-none-eabi/lib/thumb\libsysbase.a(sbrk.o)
 .ARM.attributes
                0x0000226d       0x30 c:/nds/devkitpro/devkitarm/bin/../lib/gcc/arm-none-eabi/4.8.2/../../../../arm-none-eabi/lib/thumb\libsysbase.a(times.o)
 .ARM.attributes
                0x0000229d       0x30 c:/nds/devkitpro/devkitarm/bin/../lib/gcc/arm-none-eabi/4.8.2/../../../../arm-none-eabi/lib/thumb\libsysbase.a(write.o)
 .ARM.attributes
                0x000022cd       0x30 c:/nds/devkitpro/devkitarm/bin/../lib/gcc/arm-none-eabi/4.8.2/../../../../arm-none-eabi/lib/thumb\libsysbase.a(_exit.o)
 .ARM.attributes
                0x000022fd       0x30 c:/nds/devkitpro/devkitarm/bin/../lib/gcc/arm-none-eabi/4.8.2/../../../../arm-none-eabi/lib/thumb\libsysbase.a(malloc_vars.o)
 .ARM.attributes
                0x0000232d       0x30 c:/nds/devkitpro/devkitarm/bin/../lib/gcc/arm-none-eabi/4.8.2/../../../../arm-none-eabi/lib/thumb\libsysbase.a(chdir.o)
 .ARM.attributes
                0x0000235d       0x30 c:/nds/devkitpro/devkitarm/bin/../lib/gcc/arm-none-eabi/4.8.2/../../../../arm-none-eabi/lib/thumb\libsysbase.a(build_argv.o)
 .ARM.attributes
                0x0000238d       0x30 c:/nds/devkitpro/devkitarm/bin/../lib/gcc/arm-none-eabi/4.8.2/../../../../arm-none-eabi/lib/thumb\libsysbase.a(syscall_support.o)
 .ARM.attributes
                0x000023bd       0x30 c:/nds/devkitpro/devkitarm/bin/../lib/gcc/arm-none-eabi/4.8.2/../../../../arm-none-eabi/lib/thumb\libsysbase.a(handle_manager.o)
 .ARM.attributes
                0x000023ed       0x18 c:/nds/devkitpro/devkitarm/bin/../lib/gcc/arm-none-eabi/4.8.2/thumb\libgcc.a(_arm_addsubdf3.o)
 .ARM.attributes
                0x00002405       0x18 c:/nds/devkitpro/devkitarm/bin/../lib/gcc/arm-none-eabi/4.8.2/thumb\libgcc.a(_arm_muldivdf3.o)
 .ARM.attributes
                0x0000241d       0x18 c:/nds/devkitpro/devkitarm/bin/../lib/gcc/arm-none-eabi/4.8.2/thumb\libgcc.a(_arm_cmpdf2.o)
 .ARM.attributes
                0x00002435       0x18 c:/nds/devkitpro/devkitarm/bin/../lib/gcc/arm-none-eabi/4.8.2/thumb\libgcc.a(_arm_fixdfsi.o)
 .ARM.attributes
                0x0000244d       0x18 c:/nds/devkitpro/devkitarm/bin/../lib/gcc/arm-none-eabi/4.8.2/thumb\libgcc.a(_aeabi_uldivmod.o)
 .ARM.attributes
                0x00002465       0x30 c:/nds/devkitpro/devkitarm/bin/../lib/gcc/arm-none-eabi/4.8.2/thumb\libgcc.a(bpabi.o)
 .ARM.attributes
                0x00002495       0x30 c:/nds/devkitpro/devkitarm/bin/../lib/gcc/arm-none-eabi/4.8.2/thumb\libgcc.a(_divdi3.o)
 .ARM.attributes
                0x000024c5       0x30 c:/nds/devkitpro/devkitarm/bin/../lib/gcc/arm-none-eabi/4.8.2/thumb\libgcc.a(_udivdi3.o)
 .ARM.attributes
                0x000024f5       0x18 c:/nds/devkitpro/devkitarm/bin/../lib/gcc/arm-none-eabi/4.8.2/thumb\libgcc.a(_clzsi2.o)
 .ARM.attributes
                0x0000250d       0x30 c:/nds/devkitpro/devkitarm/bin/../lib/gcc/arm-none-eabi/4.8.2/../../../../arm-none-eabi/lib/thumb\libg.a(lib_a-errno.o)
 .ARM.attributes
                0x0000253d       0x30 c:/nds/devkitpro/devkitarm/bin/../lib/gcc/arm-none-eabi/4.8.2/thumb/crtend.o
 .ARM.attributes
                0x0000256d       0x16 c:/nds/devkitpro/devkitarm/bin/../lib/gcc/arm-none-eabi/4.8.2/thumb/crtn.o

.debug
 *(.debug)

.line
 *(.line)

.debug_srcinfo
 *(.debug_srcinfo)

.debug_sfnames
 *(.debug_sfnames)

.debug_aranges  0x00000000      0x640
 *(.debug_aranges)
 .debug_aranges
                0x00000000       0x20 Background.o
 .debug_aranges
                0x00000020       0x20 Engine.o
 .debug_aranges
                0x00000040       0x20 Input.o
 .debug_aranges
                0x00000060       0x20 Menu.o
 .debug_aranges
                0x00000080       0x20 Palette.o
 .debug_aranges
                0x000000a0       0x20 Sprite.o
 .debug_aranges
                0x000000c0       0x20 Text.o
 .debug_aranges
                0x000000e0       0x20 main.o
 .debug_aranges
                0x00000100       0x20 c:/nds/Projects/Tutoriales/Tutorial1MenuInicial/nflib/lib\libnflib.a(nf_2d.o)
 .debug_aranges
                0x00000120       0x20 c:/nds/Projects/Tutoriales/Tutorial1MenuInicial/nflib/lib\libnflib.a(nf_3d.o)
 .debug_aranges
                0x00000140       0x20 c:/nds/Projects/Tutoriales/Tutorial1MenuInicial/nflib/lib\libnflib.a(nf_basic.o)
 .debug_aranges
                0x00000160       0x20 c:/nds/Projects/Tutoriales/Tutorial1MenuInicial/nflib/lib\libnflib.a(nf_sprite256.o)
 .debug_aranges
                0x00000180       0x20 c:/nds/Projects/Tutoriales/Tutorial1MenuInicial/nflib/lib\libnflib.a(nf_sprite3d.o)
 .debug_aranges
                0x000001a0       0x20 c:/nds/Projects/Tutoriales/Tutorial1MenuInicial/nflib/lib\libnflib.a(nf_text.o)
 .debug_aranges
                0x000001c0       0x20 c:/nds/Projects/Tutoriales/Tutorial1MenuInicial/nflib/lib\libnflib.a(nf_tiledbg.o)
 .debug_aranges
                0x000001e0       0x20 c:/nds/devkitPro/libnds/lib\libfilesystem.a(nitrofs.o)
 .debug_aranges
                0x00000200       0x20 c:/nds/devkitPro/libnds/lib\libfat.a(libfat.o)
 .debug_aranges
                0x00000220       0x20 c:/nds/devkitPro/libnds/lib\libfat.a(partition.o)
 .debug_aranges
                0x00000240       0x20 c:/nds/devkitPro/libnds/lib\libfat.a(cache.o)
 .debug_aranges
                0x00000260       0x20 c:/nds/devkitPro/libnds/lib\libfat.a(directory.o)
 .debug_aranges
                0x00000280       0x20 c:/nds/devkitPro/libnds/lib\libfat.a(disc.o)
 .debug_aranges
                0x000002a0       0x20 c:/nds/devkitPro/libnds/lib\libfat.a(fatdir.o)
 .debug_aranges
                0x000002c0       0x20 c:/nds/devkitPro/libnds/lib\libfat.a(fatfile.o)
 .debug_aranges
                0x000002e0       0x20 c:/nds/devkitPro/libnds/lib\libfat.a(file_allocation_table.o)
 .debug_aranges
                0x00000300       0x20 c:/nds/devkitPro/libnds/lib\libfat.a(filetime.o)
 .debug_aranges
                0x00000320       0x20 c:/nds/devkitPro/libnds/lib\libfat.a(lock.o)
 .debug_aranges
                0x00000340       0x20 c:/nds/devkitPro/libnds/lib\libnds9.a(console.o)
 .debug_aranges
                0x00000360       0x20 c:/nds/devkitPro/libnds/lib\libnds9.a(keys.o)
 .debug_aranges
                0x00000380       0x20 c:/nds/devkitPro/libnds/lib\libnds9.a(sprite.o)
 .debug_aranges
                0x000003a0       0x20 c:/nds/devkitPro/libnds/lib\libnds9.a(sprite_alloc.o)
 .debug_aranges
                0x000003c0       0x20 c:/nds/devkitPro/libnds/lib\libnds9.a(trig.o)
 .debug_aranges
                0x000003e0       0x20 c:/nds/devkitPro/libnds/lib\libnds9.a(video.o)
 .debug_aranges
                0x00000400       0x20 c:/nds/devkitPro/libnds/lib\libnds9.a(videoGL.o)
 .debug_aranges
                0x00000420       0x20 c:/nds/devkitPro/libnds/lib\libnds9.a(dldi.o)
 .debug_aranges
                0x00000440       0x20 c:/nds/devkitPro/libnds/lib\libnds9.a(dsi_sd.o)
 .debug_aranges
                0x00000460       0x20 c:/nds/devkitPro/libnds/lib\libnds9.a(initSystem.o)
 .debug_aranges
                0x00000480       0x20 c:/nds/devkitPro/libnds/lib\libnds9.a(card.o)
 .debug_aranges
                0x000004a0       0x20 c:/nds/devkitPro/libnds/lib\libnds9.a(fifosystem.o)
 .debug_aranges
                0x000004c0       0x20 c:/nds/devkitPro/libnds/lib\libnds9.a(interrupts.o)
 .debug_aranges
                0x000004e0       0x20 c:/nds/devkitPro/libnds/lib\libnds9.a(libnds_exit.arm.o)
 .debug_aranges
                0x00000500       0x20 c:/nds/devkitPro/libnds/lib\libnds9.a(dcache.o)
 .debug_aranges
                0x00000520       0x20 c:/nds/devkitPro/libnds/lib\libnds9.a(dldi_stub.o)
 .debug_aranges
                0x00000540       0x20 c:/nds/devkitPro/libnds/lib\libnds9.a(mpu_setup.o)
 .debug_aranges
                0x00000560       0x20 c:/nds/devkitPro/libnds/lib\libnds9.a(biosCalls.o)
 .debug_aranges
                0x00000580       0x20 c:/nds/devkitPro/libnds/lib\libnds9.a(debugprint.o)
 .debug_aranges
                0x000005a0       0x20 c:/nds/devkitPro/libnds/lib\libnds9.a(interruptDispatcher.o)
 .debug_aranges
                0x000005c0       0x20 c:/nds/devkitPro/libnds/lib\libnds9.a(swiSoftReset.o)
 .debug_aranges
                0x000005e0       0x20 c:/nds/devkitPro/libnds/lib\libnds9.a(background.o)
 .debug_aranges
                0x00000600       0x20 c:/nds/devkitPro/libnds/lib\libnds9.a(dynamicArray.o)
 .debug_aranges
                0x00000620       0x20 c:/nds/devkitPro/libnds/lib\libnds9.a(system.o)

.debug_pubnames
 *(.debug_pubnames)

.debug_info     0x00000000    0x33ceb
 *(.debug_info)
 .debug_info    0x00000000      0xdc9 Background.o
 .debug_info    0x00000dc9      0xda6 Engine.o
 .debug_info    0x00001b6f      0xdf3 Input.o
 .debug_info    0x00002962      0xbf2 Menu.o
 .debug_info    0x00003554      0xd13 Palette.o
 .debug_info    0x00004267     0x126c Sprite.o
 .debug_info    0x000054d3      0xfc4 Text.o
 .debug_info    0x00006497      0xf67 main.o
 .debug_info    0x000073fe     0x16f7 c:/nds/Projects/Tutoriales/Tutorial1MenuInicial/nflib/lib\libnflib.a(nf_2d.o)
 .debug_info    0x00008af5      0xd0e c:/nds/Projects/Tutoriales/Tutorial1MenuInicial/nflib/lib\libnflib.a(nf_3d.o)
 .debug_info    0x00009803     0x1455 c:/nds/Projects/Tutoriales/Tutorial1MenuInicial/nflib/lib\libnflib.a(nf_basic.o)
 .debug_info    0x0000ac58     0x2df5 c:/nds/Projects/Tutoriales/Tutorial1MenuInicial/nflib/lib\libnflib.a(nf_sprite256.o)
 .debug_info    0x0000da4d     0x23c8 c:/nds/Projects/Tutoriales/Tutorial1MenuInicial/nflib/lib\libnflib.a(nf_sprite3d.o)
 .debug_info    0x0000fe15     0x1c17 c:/nds/Projects/Tutoriales/Tutorial1MenuInicial/nflib/lib\libnflib.a(nf_text.o)
 .debug_info    0x00011a2c     0x395d c:/nds/Projects/Tutoriales/Tutorial1MenuInicial/nflib/lib\libnflib.a(nf_tiledbg.o)
 .debug_info    0x00015389     0x28a3 c:/nds/devkitPro/libnds/lib\libfilesystem.a(nitrofs.o)
 .debug_info    0x00017c2c     0x1cf3 c:/nds/devkitPro/libnds/lib\libfat.a(libfat.o)
 .debug_info    0x0001991f     0x27ae c:/nds/devkitPro/libnds/lib\libfat.a(partition.o)
 .debug_info    0x0001c0cd      0xe1e c:/nds/devkitPro/libnds/lib\libfat.a(cache.o)
 .debug_info    0x0001ceeb     0x2a8c c:/nds/devkitPro/libnds/lib\libfat.a(directory.o)
 .debug_info    0x0001f977      0x24b c:/nds/devkitPro/libnds/lib\libfat.a(disc.o)
 .debug_info    0x0001fbc2     0x2537 c:/nds/devkitPro/libnds/lib\libfat.a(fatdir.o)
 .debug_info    0x000220f9     0x2fd9 c:/nds/devkitPro/libnds/lib\libfat.a(fatfile.o)
 .debug_info    0x000250d2      0xd21 c:/nds/devkitPro/libnds/lib\libfat.a(file_allocation_table.o)
 .debug_info    0x00025df3      0x28d c:/nds/devkitPro/libnds/lib\libfat.a(filetime.o)
 .debug_info    0x00026080      0x124 c:/nds/devkitPro/libnds/lib\libfat.a(lock.o)
 .debug_info    0x000261a4     0x2230 c:/nds/devkitPro/libnds/lib\libnds9.a(console.o)
 .debug_info    0x000283d4      0x414 c:/nds/devkitPro/libnds/lib\libnds9.a(keys.o)
 .debug_info    0x000287e8      0xc49 c:/nds/devkitPro/libnds/lib\libnds9.a(sprite.o)
 .debug_info    0x00029431     0x10a2 c:/nds/devkitPro/libnds/lib\libnds9.a(sprite_alloc.o)
 .debug_info    0x0002a4d3      0x552 c:/nds/devkitPro/libnds/lib\libnds9.a(trig.o)
 .debug_info    0x0002aa25      0x728 c:/nds/devkitPro/libnds/lib\libnds9.a(video.o)
 .debug_info    0x0002b14d     0x2f26 c:/nds/devkitPro/libnds/lib\libnds9.a(videoGL.o)
 .debug_info    0x0002e073      0x798 c:/nds/devkitPro/libnds/lib\libnds9.a(dldi.o)
 .debug_info    0x0002e80b      0x94f c:/nds/devkitPro/libnds/lib\libnds9.a(dsi_sd.o)
 .debug_info    0x0002f15a      0xf4e c:/nds/devkitPro/libnds/lib\libnds9.a(initSystem.o)
 .debug_info    0x000300a8      0x4c2 c:/nds/devkitPro/libnds/lib\libnds9.a(card.o)
 .debug_info    0x0003056a     0x1522 c:/nds/devkitPro/libnds/lib\libnds9.a(fifosystem.o)
 .debug_info    0x00031a8c      0x5ac c:/nds/devkitPro/libnds/lib\libnds9.a(interrupts.o)
 .debug_info    0x00032038      0x327 c:/nds/devkitPro/libnds/lib\libnds9.a(libnds_exit.arm.o)
 .debug_info    0x0003235f       0xba c:/nds/devkitPro/libnds/lib\libnds9.a(dcache.o)
 .debug_info    0x00032419       0xc2 c:/nds/devkitPro/libnds/lib\libnds9.a(dldi_stub.o)
 .debug_info    0x000324db       0xc4 c:/nds/devkitPro/libnds/lib\libnds9.a(mpu_setup.o)
 .debug_info    0x0003259f       0xbf c:/nds/devkitPro/libnds/lib\libnds9.a(biosCalls.o)
 .debug_info    0x0003265e       0xc0 c:/nds/devkitPro/libnds/lib\libnds9.a(debugprint.o)
 .debug_info    0x0003271e       0xc9 c:/nds/devkitPro/libnds/lib\libnds9.a(interruptDispatcher.o)
 .debug_info    0x000327e7       0xc2 c:/nds/devkitPro/libnds/lib\libnds9.a(swiSoftReset.o)
 .debug_info    0x000328a9      0x91a c:/nds/devkitPro/libnds/lib\libnds9.a(background.o)
 .debug_info    0x000331c3      0x26a c:/nds/devkitPro/libnds/lib\libnds9.a(dynamicArray.o)
 .debug_info    0x0003342d      0x8be c:/nds/devkitPro/libnds/lib\libnds9.a(system.o)

.debug_abbrev   0x00000000     0x82f8
 *(.debug_abbrev)
 .debug_abbrev  0x00000000      0x33d Background.o
 .debug_abbrev  0x0000033d      0x2ff Engine.o
 .debug_abbrev  0x0000063c      0x33f Input.o
 .debug_abbrev  0x0000097b      0x2a7 Menu.o
 .debug_abbrev  0x00000c22      0x2fd Palette.o
 .debug_abbrev  0x00000f1f      0x355 Sprite.o
 .debug_abbrev  0x00001274      0x370 Text.o
 .debug_abbrev  0x000015e4      0x362 main.o
 .debug_abbrev  0x00001946      0x396 c:/nds/Projects/Tutoriales/Tutorial1MenuInicial/nflib/lib\libnflib.a(nf_2d.o)
 .debug_abbrev  0x00001cdc      0x307 c:/nds/Projects/Tutoriales/Tutorial1MenuInicial/nflib/lib\libnflib.a(nf_3d.o)
 .debug_abbrev  0x00001fe3      0x2ee c:/nds/Projects/Tutoriales/Tutorial1MenuInicial/nflib/lib\libnflib.a(nf_basic.o)
 .debug_abbrev  0x000022d1      0x41d c:/nds/Projects/Tutoriales/Tutorial1MenuInicial/nflib/lib\libnflib.a(nf_sprite256.o)
 .debug_abbrev  0x000026ee      0x3fa c:/nds/Projects/Tutoriales/Tutorial1MenuInicial/nflib/lib\libnflib.a(nf_sprite3d.o)
 .debug_abbrev  0x00002ae8      0x3de c:/nds/Projects/Tutoriales/Tutorial1MenuInicial/nflib/lib\libnflib.a(nf_text.o)
 .debug_abbrev  0x00002ec6      0x427 c:/nds/Projects/Tutoriales/Tutorial1MenuInicial/nflib/lib\libnflib.a(nf_tiledbg.o)
 .debug_abbrev  0x000032ed      0x4bc c:/nds/devkitPro/libnds/lib\libfilesystem.a(nitrofs.o)
 .debug_abbrev  0x000037a9      0x3b9 c:/nds/devkitPro/libnds/lib\libfat.a(libfat.o)
 .debug_abbrev  0x00003b62      0x46f c:/nds/devkitPro/libnds/lib\libfat.a(partition.o)
 .debug_abbrev  0x00003fd1      0x316 c:/nds/devkitPro/libnds/lib\libfat.a(cache.o)
 .debug_abbrev  0x000042e7      0x4a7 c:/nds/devkitPro/libnds/lib\libfat.a(directory.o)
 .debug_abbrev  0x0000478e       0xe3 c:/nds/devkitPro/libnds/lib\libfat.a(disc.o)
 .debug_abbrev  0x00004871      0x39a c:/nds/devkitPro/libnds/lib\libfat.a(fatdir.o)
 .debug_abbrev  0x00004c0b      0x4de c:/nds/devkitPro/libnds/lib\libfat.a(fatfile.o)
 .debug_abbrev  0x000050e9      0x2f8 c:/nds/devkitPro/libnds/lib\libfat.a(file_allocation_table.o)
 .debug_abbrev  0x000053e1       0xf0 c:/nds/devkitPro/libnds/lib\libfat.a(filetime.o)
 .debug_abbrev  0x000054d1       0x7f c:/nds/devkitPro/libnds/lib\libfat.a(lock.o)
 .debug_abbrev  0x00005550      0x51b c:/nds/devkitPro/libnds/lib\libnds9.a(console.o)
 .debug_abbrev  0x00005a6b      0x16b c:/nds/devkitPro/libnds/lib\libnds9.a(keys.o)
 .debug_abbrev  0x00005bd6      0x33e c:/nds/devkitPro/libnds/lib\libnds9.a(sprite.o)
 .debug_abbrev  0x00005f14      0x32e c:/nds/devkitPro/libnds/lib\libnds9.a(sprite_alloc.o)
 .debug_abbrev  0x00006242      0x1ff c:/nds/devkitPro/libnds/lib\libnds9.a(trig.o)
 .debug_abbrev  0x00006441      0x1ef c:/nds/devkitPro/libnds/lib\libnds9.a(video.o)
 .debug_abbrev  0x00006630      0x496 c:/nds/devkitPro/libnds/lib\libnds9.a(videoGL.o)
 .debug_abbrev  0x00006ac6      0x26f c:/nds/devkitPro/libnds/lib\libnds9.a(dldi.o)
 .debug_abbrev  0x00006d35      0x21d c:/nds/devkitPro/libnds/lib\libnds9.a(dsi_sd.o)
 .debug_abbrev  0x00006f52      0x2fa c:/nds/devkitPro/libnds/lib\libnds9.a(initSystem.o)
 .debug_abbrev  0x0000724c      0x1d5 c:/nds/devkitPro/libnds/lib\libnds9.a(card.o)
 .debug_abbrev  0x00007421      0x469 c:/nds/devkitPro/libnds/lib\libnds9.a(fifosystem.o)
 .debug_abbrev  0x0000788a      0x239 c:/nds/devkitPro/libnds/lib\libnds9.a(interrupts.o)
 .debug_abbrev  0x00007ac3      0x175 c:/nds/devkitPro/libnds/lib\libnds9.a(libnds_exit.arm.o)
 .debug_abbrev  0x00007c38       0x14 c:/nds/devkitPro/libnds/lib\libnds9.a(dcache.o)
 .debug_abbrev  0x00007c4c       0x14 c:/nds/devkitPro/libnds/lib\libnds9.a(dldi_stub.o)
 .debug_abbrev  0x00007c60       0x14 c:/nds/devkitPro/libnds/lib\libnds9.a(mpu_setup.o)
 .debug_abbrev  0x00007c74       0x14 c:/nds/devkitPro/libnds/lib\libnds9.a(biosCalls.o)
 .debug_abbrev  0x00007c88       0x14 c:/nds/devkitPro/libnds/lib\libnds9.a(debugprint.o)
 .debug_abbrev  0x00007c9c       0x14 c:/nds/devkitPro/libnds/lib\libnds9.a(interruptDispatcher.o)
 .debug_abbrev  0x00007cb0       0x14 c:/nds/devkitPro/libnds/lib\libnds9.a(swiSoftReset.o)
 .debug_abbrev  0x00007cc4      0x2a6 c:/nds/devkitPro/libnds/lib\libnds9.a(background.o)
 .debug_abbrev  0x00007f6a      0x13e c:/nds/devkitPro/libnds/lib\libnds9.a(dynamicArray.o)
 .debug_abbrev  0x000080a8      0x250 c:/nds/devkitPro/libnds/lib\libnds9.a(system.o)

.debug_line     0x00000000     0xb66e
 *(.debug_line)
 .debug_line    0x00000000      0x22d Background.o
 .debug_line    0x0000022d      0x258 Engine.o
 .debug_line    0x00000485      0x1fc Input.o
 .debug_line    0x00000681      0x1ad Menu.o
 .debug_line    0x0000082e      0x214 Palette.o
 .debug_line    0x00000a42      0x256 Sprite.o
 .debug_line    0x00000c98      0x222 Text.o
 .debug_line    0x00000eba      0x47e main.o
 .debug_line    0x00001338      0x355 c:/nds/Projects/Tutoriales/Tutorial1MenuInicial/nflib/lib\libnflib.a(nf_2d.o)
 .debug_line    0x0000168d      0x2ac c:/nds/Projects/Tutoriales/Tutorial1MenuInicial/nflib/lib\libnflib.a(nf_3d.o)
 .debug_line    0x00001939      0x37e c:/nds/Projects/Tutoriales/Tutorial1MenuInicial/nflib/lib\libnflib.a(nf_basic.o)
 .debug_line    0x00001cb7      0x947 c:/nds/Projects/Tutoriales/Tutorial1MenuInicial/nflib/lib\libnflib.a(nf_sprite256.o)
 .debug_line    0x000025fe      0x9f2 c:/nds/Projects/Tutoriales/Tutorial1MenuInicial/nflib/lib\libnflib.a(nf_sprite3d.o)
 .debug_line    0x00002ff0      0x4f0 c:/nds/Projects/Tutoriales/Tutorial1MenuInicial/nflib/lib\libnflib.a(nf_text.o)
 .debug_line    0x000034e0      0xad1 c:/nds/Projects/Tutoriales/Tutorial1MenuInicial/nflib/lib\libnflib.a(nf_tiledbg.o)
 .debug_line    0x00003fb1      0x5c7 c:/nds/devkitPro/libnds/lib\libfilesystem.a(nitrofs.o)
 .debug_line    0x00004578      0x3a7 c:/nds/devkitPro/libnds/lib\libfat.a(libfat.o)
 .debug_line    0x0000491f      0x66d c:/nds/devkitPro/libnds/lib\libfat.a(partition.o)
 .debug_line    0x00004f8c      0x3aa c:/nds/devkitPro/libnds/lib\libfat.a(cache.o)
 .debug_line    0x00005336      0x9d5 c:/nds/devkitPro/libnds/lib\libfat.a(directory.o)
 .debug_line    0x00005d0b      0x12c c:/nds/devkitPro/libnds/lib\libfat.a(disc.o)
 .debug_line    0x00005e37      0x5c2 c:/nds/devkitPro/libnds/lib\libfat.a(fatdir.o)
 .debug_line    0x000063f9      0x9c6 c:/nds/devkitPro/libnds/lib\libfat.a(fatfile.o)
 .debug_line    0x00006dbf      0x389 c:/nds/devkitPro/libnds/lib\libfat.a(file_allocation_table.o)
 .debug_line    0x00007148      0x171 c:/nds/devkitPro/libnds/lib\libfat.a(filetime.o)
 .debug_line    0x000072b9       0x72 c:/nds/devkitPro/libnds/lib\libfat.a(lock.o)
 .debug_line    0x0000732b      0x6af c:/nds/devkitPro/libnds/lib\libnds9.a(console.o)
 .debug_line    0x000079da      0x24e c:/nds/devkitPro/libnds/lib\libnds9.a(keys.o)
 .debug_line    0x00007c28      0x354 c:/nds/devkitPro/libnds/lib\libnds9.a(sprite.o)
 .debug_line    0x00007f7c      0x33e c:/nds/devkitPro/libnds/lib\libnds9.a(sprite_alloc.o)
 .debug_line    0x000082ba      0x2d7 c:/nds/devkitPro/libnds/lib\libnds9.a(trig.o)
 .debug_line    0x00008591      0x26e c:/nds/devkitPro/libnds/lib\libnds9.a(video.o)
 .debug_line    0x000087ff      0xb57 c:/nds/devkitPro/libnds/lib\libnds9.a(videoGL.o)
 .debug_line    0x00009356      0x3af c:/nds/devkitPro/libnds/lib\libnds9.a(dldi.o)
 .debug_line    0x00009705      0x24b c:/nds/devkitPro/libnds/lib\libnds9.a(dsi_sd.o)
 .debug_line    0x00009950      0x386 c:/nds/devkitPro/libnds/lib\libnds9.a(initSystem.o)
 .debug_line    0x00009cd6      0x21b c:/nds/devkitPro/libnds/lib\libnds9.a(card.o)
 .debug_line    0x00009ef1      0x6fa c:/nds/devkitPro/libnds/lib\libnds9.a(fifosystem.o)
 .debug_line    0x0000a5eb      0x28e c:/nds/devkitPro/libnds/lib\libnds9.a(interrupts.o)
 .debug_line    0x0000a879      0x1dd c:/nds/devkitPro/libnds/lib\libnds9.a(libnds_exit.arm.o)
 .debug_line    0x0000aa56       0xa2 c:/nds/devkitPro/libnds/lib\libnds9.a(dcache.o)
 .debug_line    0x0000aaf8       0x8b c:/nds/devkitPro/libnds/lib\libnds9.a(dldi_stub.o)
 .debug_line    0x0000ab83      0x101 c:/nds/devkitPro/libnds/lib\libnds9.a(mpu_setup.o)
 .debug_line    0x0000ac84       0xc3 c:/nds/devkitPro/libnds/lib\libnds9.a(biosCalls.o)
 .debug_line    0x0000ad47       0x9f c:/nds/devkitPro/libnds/lib\libnds9.a(debugprint.o)
 .debug_line    0x0000ade6       0xc7 c:/nds/devkitPro/libnds/lib\libnds9.a(interruptDispatcher.o)
 .debug_line    0x0000aead       0x97 c:/nds/devkitPro/libnds/lib\libnds9.a(swiSoftReset.o)
 .debug_line    0x0000af44      0x2f1 c:/nds/devkitPro/libnds/lib\libnds9.a(background.o)
 .debug_line    0x0000b235      0x1a4 c:/nds/devkitPro/libnds/lib\libnds9.a(dynamicArray.o)
 .debug_line    0x0000b3d9      0x295 c:/nds/devkitPro/libnds/lib\libnds9.a(system.o)

.debug_frame    0x00000000     0x3058
 *(.debug_frame)
 .debug_frame   0x00000000       0x6c Background.o
 .debug_frame   0x0000006c       0x58 Engine.o
 .debug_frame   0x000000c4       0x90 Input.o
 .debug_frame   0x00000154       0x50 Menu.o
 .debug_frame   0x000001a4       0x58 Palette.o
 .debug_frame   0x000001fc       0xb0 Sprite.o
 .debug_frame   0x000002ac       0x90 Text.o
 .debug_frame   0x0000033c       0x28 main.o
 .debug_frame   0x00000364      0x198 c:/nds/Projects/Tutoriales/Tutorial1MenuInicial/nflib/lib\libnflib.a(nf_2d.o)
 .debug_frame   0x000004fc       0x58 c:/nds/Projects/Tutoriales/Tutorial1MenuInicial/nflib/lib\libnflib.a(nf_3d.o)
 .debug_frame   0x00000554       0x7c c:/nds/Projects/Tutoriales/Tutorial1MenuInicial/nflib/lib\libnflib.a(nf_basic.o)
 .debug_frame   0x000005d0      0x2cc c:/nds/Projects/Tutoriales/Tutorial1MenuInicial/nflib/lib\libnflib.a(nf_sprite256.o)
 .debug_frame   0x0000089c      0x324 c:/nds/Projects/Tutoriales/Tutorial1MenuInicial/nflib/lib\libnflib.a(nf_sprite3d.o)
 .debug_frame   0x00000bc0      0x16c c:/nds/Projects/Tutoriales/Tutorial1MenuInicial/nflib/lib\libnflib.a(nf_text.o)
 .debug_frame   0x00000d2c      0x3a8 c:/nds/Projects/Tutoriales/Tutorial1MenuInicial/nflib/lib\libnflib.a(nf_tiledbg.o)
 .debug_frame   0x000010d4      0x1a4 c:/nds/devkitPro/libnds/lib\libfilesystem.a(nitrofs.o)
 .debug_frame   0x00001278       0xd8 c:/nds/devkitPro/libnds/lib\libfat.a(libfat.o)
 .debug_frame   0x00001350      0x14c c:/nds/devkitPro/libnds/lib\libfat.a(partition.o)
 .debug_frame   0x0000149c      0x1b0 c:/nds/devkitPro/libnds/lib\libfat.a(cache.o)
 .debug_frame   0x0000164c      0x280 c:/nds/devkitPro/libnds/lib\libfat.a(directory.o)
 .debug_frame   0x000018cc       0x20 c:/nds/devkitPro/libnds/lib\libfat.a(disc.o)
 .debug_frame   0x000018ec      0x17c c:/nds/devkitPro/libnds/lib\libfat.a(fatdir.o)
 .debug_frame   0x00001a68      0x234 c:/nds/devkitPro/libnds/lib\libfat.a(fatfile.o)
 .debug_frame   0x00001c9c      0x120 c:/nds/devkitPro/libnds/lib\libfat.a(file_allocation_table.o)
 .debug_frame   0x00001dbc       0x58 c:/nds/devkitPro/libnds/lib\libfat.a(filetime.o)
 .debug_frame   0x00001e14       0x50 c:/nds/devkitPro/libnds/lib\libfat.a(lock.o)
 .debug_frame   0x00001e64      0x1ac c:/nds/devkitPro/libnds/lib\libnds9.a(console.o)
 .debug_frame   0x00002010       0x8c c:/nds/devkitPro/libnds/lib\libnds9.a(keys.o)
 .debug_frame   0x0000209c      0x114 c:/nds/devkitPro/libnds/lib\libnds9.a(sprite.o)
 .debug_frame   0x000021b0       0xb8 c:/nds/devkitPro/libnds/lib\libnds9.a(sprite_alloc.o)
 .debug_frame   0x00002268       0xf0 c:/nds/devkitPro/libnds/lib\libnds9.a(trig.o)
 .debug_frame   0x00002358       0xc4 c:/nds/devkitPro/libnds/lib\libnds9.a(video.o)
 .debug_frame   0x0000241c      0x440 c:/nds/devkitPro/libnds/lib\libnds9.a(videoGL.o)
 .debug_frame   0x0000285c       0x94 c:/nds/devkitPro/libnds/lib\libnds9.a(dldi.o)
 .debug_frame   0x000028f0       0xa0 c:/nds/devkitPro/libnds/lib\libnds9.a(dsi_sd.o)
 .debug_frame   0x00002990       0x2c c:/nds/devkitPro/libnds/lib\libnds9.a(initSystem.o)
 .debug_frame   0x000029bc       0xf4 c:/nds/devkitPro/libnds/lib\libnds9.a(card.o)
 .debug_frame   0x00002ab0      0x2c8 c:/nds/devkitPro/libnds/lib\libnds9.a(fifosystem.o)
 .debug_frame   0x00002d78       0xb4 c:/nds/devkitPro/libnds/lib\libnds9.a(interrupts.o)
 .debug_frame   0x00002e2c       0x38 c:/nds/devkitPro/libnds/lib\libnds9.a(libnds_exit.arm.o)
 .debug_frame   0x00002e64       0xb4 c:/nds/devkitPro/libnds/lib\libnds9.a(background.o)
 .debug_frame   0x00002f18       0x78 c:/nds/devkitPro/libnds/lib\libnds9.a(dynamicArray.o)
 .debug_frame   0x00002f90       0xc8 c:/nds/devkitPro/libnds/lib\libnds9.a(system.o)

.debug_str      0x00000000     0x820d
 *(.debug_str)
 .debug_str     0x00000000      0x9b9 Background.o
                                0xafc (size before relaxing)
 .debug_str     0x000009b9      0x1cb Engine.o
                                0xa37 (size before relaxing)
 .debug_str     0x00000b84      0x283 Input.o
                                0xae7 (size before relaxing)
 .debug_str     0x00000e07       0x77 Menu.o
                                0x978 (size before relaxing)
 .debug_str     0x00000e7e      0x20b Palette.o
                                0xa9c (size before relaxing)
 .debug_str     0x00001089      0x32d Sprite.o
                                0xd63 (size before relaxing)
 .debug_str     0x000013b6      0x20c Text.o
                                0xb09 (size before relaxing)
 .debug_str     0x000015c2      0x17d main.o
                                0xb2b (size before relaxing)
 .debug_str     0x0000173f      0x3b3 c:/nds/Projects/Tutoriales/Tutorial1MenuInicial/nflib/lib\libnflib.a(nf_2d.o)
                                0xaea (size before relaxing)
 .debug_str     0x00001af2      0x36d c:/nds/Projects/Tutoriales/Tutorial1MenuInicial/nflib/lib\libnflib.a(nf_3d.o)
                                0x80a (size before relaxing)
 .debug_str     0x00001e5f      0x23f c:/nds/Projects/Tutoriales/Tutorial1MenuInicial/nflib/lib\libnflib.a(nf_basic.o)
                                0x70f (size before relaxing)
 .debug_str     0x0000209e      0xc41 c:/nds/Projects/Tutoriales/Tutorial1MenuInicial/nflib/lib\libnflib.a(nf_sprite256.o)
                               0x1564 (size before relaxing)
 .debug_str     0x00002cdf      0x6bd c:/nds/Projects/Tutoriales/Tutorial1MenuInicial/nflib/lib\libnflib.a(nf_sprite3d.o)
                               0x114a (size before relaxing)
 .debug_str     0x0000339c      0x236 c:/nds/Projects/Tutoriales/Tutorial1MenuInicial/nflib/lib\libnflib.a(nf_text.o)
                                0xb79 (size before relaxing)
 .debug_str     0x000035d2      0x572 c:/nds/Projects/Tutoriales/Tutorial1MenuInicial/nflib/lib\libnflib.a(nf_tiledbg.o)
                               0x12dc (size before relaxing)
 .debug_str     0x00003b44      0x762 c:/nds/devkitPro/libnds/lib\libfilesystem.a(nitrofs.o)
                                0xd80 (size before relaxing)
 .debug_str     0x000042a6      0x537 c:/nds/devkitPro/libnds/lib\libfat.a(libfat.o)
                                0xdf8 (size before relaxing)
 .debug_str     0x000047dd      0x5a5 c:/nds/devkitPro/libnds/lib\libfat.a(partition.o)
                               0x11cb (size before relaxing)
 .debug_str     0x00004d82      0x1ce c:/nds/devkitPro/libnds/lib\libfat.a(cache.o)
                                0x59d (size before relaxing)
 .debug_str     0x00004f50      0x7f4 c:/nds/devkitPro/libnds/lib\libfat.a(directory.o)
                                0xee1 (size before relaxing)
 .debug_str     0x00005744       0x54 c:/nds/devkitPro/libnds/lib\libfat.a(disc.o)
                                0x2a8 (size before relaxing)
 .debug_str     0x00005798      0x1f9 c:/nds/devkitPro/libnds/lib\libfat.a(fatdir.o)
                                0xf77 (size before relaxing)
 .debug_str     0x00005991      0x21d c:/nds/devkitPro/libnds/lib\libfat.a(fatfile.o)
                               0x1025 (size before relaxing)
 .debug_str     0x00005bae       0xb5 c:/nds/devkitPro/libnds/lib\libfat.a(file_allocation_table.o)
                                0x673 (size before relaxing)
 .debug_str     0x00005c63       0x60 c:/nds/devkitPro/libnds/lib\libfat.a(filetime.o)
                                0x232 (size before relaxing)
 .debug_str     0x00005cc3       0x42 c:/nds/devkitPro/libnds/lib\libfat.a(lock.o)
                                0x193 (size before relaxing)
 .debug_str     0x00005d05      0x543 c:/nds/devkitPro/libnds/lib\libnds9.a(console.o)
                               0x1151 (size before relaxing)
 .debug_str     0x00006248      0x13a c:/nds/devkitPro/libnds/lib\libnds9.a(keys.o)
                                0x38c (size before relaxing)
 .debug_str     0x00006382      0x139 c:/nds/devkitPro/libnds/lib\libnds9.a(sprite.o)
                                0x84b (size before relaxing)
 .debug_str     0x000064bb      0x116 c:/nds/devkitPro/libnds/lib\libnds9.a(sprite_alloc.o)
                                0x7fb (size before relaxing)
 .debug_str     0x000065d1       0xfe c:/nds/devkitPro/libnds/lib\libnds9.a(trig.o)
                                0x278 (size before relaxing)
 .debug_str     0x000066cf      0x2de c:/nds/devkitPro/libnds/lib\libnds9.a(video.o)
                                0xbdb (size before relaxing)
 .debug_str     0x000069ad      0x677 c:/nds/devkitPro/libnds/lib\libnds9.a(videoGL.o)
                               0x167f (size before relaxing)
 .debug_str     0x00007024      0x1cf c:/nds/devkitPro/libnds/lib\libnds9.a(dldi.o)
                                0x497 (size before relaxing)
 .debug_str     0x000071f3      0x359 c:/nds/devkitPro/libnds/lib\libnds9.a(dsi_sd.o)
                                0x602 (size before relaxing)
 .debug_str     0x0000754c      0x2ad c:/nds/devkitPro/libnds/lib\libnds9.a(initSystem.o)
                                0xaa0 (size before relaxing)
 .debug_str     0x000077f9       0xd6 c:/nds/devkitPro/libnds/lib\libnds9.a(card.o)
                                0x277 (size before relaxing)
 .debug_str     0x000078cf      0x4a8 c:/nds/devkitPro/libnds/lib\libnds9.a(fifosystem.o)
                                0x82c (size before relaxing)
 .debug_str     0x00007d77      0x10e c:/nds/devkitPro/libnds/lib\libnds9.a(interrupts.o)
                                0x415 (size before relaxing)
 .debug_str     0x00007e85       0xfe c:/nds/devkitPro/libnds/lib\libnds9.a(libnds_exit.arm.o)
                                0x359 (size before relaxing)
 .debug_str     0x00007f83      0x106 c:/nds/devkitPro/libnds/lib\libnds9.a(background.o)
                                0x71d (size before relaxing)
 .debug_str     0x00008089       0x64 c:/nds/devkitPro/libnds/lib\libnds9.a(dynamicArray.o)
                                0x210 (size before relaxing)
 .debug_str     0x000080ed      0x120 c:/nds/devkitPro/libnds/lib\libnds9.a(system.o)
                                0x674 (size before relaxing)

.debug_loc      0x00000000    0x1b370
 *(.debug_loc)
 .debug_loc     0x00000000      0x111 Background.o
 .debug_loc     0x00000111       0x29 Engine.o
 .debug_loc     0x0000013a       0x52 Input.o
 .debug_loc     0x0000018c       0xae Palette.o
 .debug_loc     0x0000023a      0x2b7 Sprite.o
 .debug_loc     0x000004f1      0x18a Text.o
 .debug_loc     0x0000067b       0x42 main.o
 .debug_loc     0x000006bd      0xdb9 c:/nds/Projects/Tutoriales/Tutorial1MenuInicial/nflib/lib\libnflib.a(nf_2d.o)
 .debug_loc     0x00001476      0x23f c:/nds/Projects/Tutoriales/Tutorial1MenuInicial/nflib/lib\libnflib.a(nf_3d.o)
 .debug_loc     0x000016b5      0x2d9 c:/nds/Projects/Tutoriales/Tutorial1MenuInicial/nflib/lib\libnflib.a(nf_basic.o)
 .debug_loc     0x0000198e     0x1381 c:/nds/Projects/Tutoriales/Tutorial1MenuInicial/nflib/lib\libnflib.a(nf_sprite256.o)
 .debug_loc     0x00002d0f     0x1804 c:/nds/Projects/Tutoriales/Tutorial1MenuInicial/nflib/lib\libnflib.a(nf_sprite3d.o)
 .debug_loc     0x00004513      0xb22 c:/nds/Projects/Tutoriales/Tutorial1MenuInicial/nflib/lib\libnflib.a(nf_text.o)
 .debug_loc     0x00005035     0x2856 c:/nds/Projects/Tutoriales/Tutorial1MenuInicial/nflib/lib\libnflib.a(nf_tiledbg.o)
 .debug_loc     0x0000788b     0x1c73 c:/nds/devkitPro/libnds/lib\libfilesystem.a(nitrofs.o)
 .debug_loc     0x000094fe      0x4f6 c:/nds/devkitPro/libnds/lib\libfat.a(libfat.o)
 .debug_loc     0x000099f4      0xee3 c:/nds/devkitPro/libnds/lib\libfat.a(partition.o)
 .debug_loc     0x0000a8d7      0xf9a c:/nds/devkitPro/libnds/lib\libfat.a(cache.o)
 .debug_loc     0x0000b871     0x31ce c:/nds/devkitPro/libnds/lib\libfat.a(directory.o)
 .debug_loc     0x0000ea3f     0x1391 c:/nds/devkitPro/libnds/lib\libfat.a(fatdir.o)
 .debug_loc     0x0000fdd0     0x2ff1 c:/nds/devkitPro/libnds/lib\libfat.a(fatfile.o)
 .debug_loc     0x00012dc1      0xb28 c:/nds/devkitPro/libnds/lib\libfat.a(file_allocation_table.o)
 .debug_loc     0x000138e9       0x42 c:/nds/devkitPro/libnds/lib\libfat.a(filetime.o)
 .debug_loc     0x0001392b      0xf51 c:/nds/devkitPro/libnds/lib\libnds9.a(console.o)
 .debug_loc     0x0001487c      0x80e c:/nds/devkitPro/libnds/lib\libnds9.a(sprite.o)
 .debug_loc     0x0001508a      0x962 c:/nds/devkitPro/libnds/lib\libnds9.a(sprite_alloc.o)
 .debug_loc     0x000159ec      0x83c c:/nds/devkitPro/libnds/lib\libnds9.a(trig.o)
 .debug_loc     0x00016228      0x201 c:/nds/devkitPro/libnds/lib\libnds9.a(video.o)
 .debug_loc     0x00016429     0x2c8f c:/nds/devkitPro/libnds/lib\libnds9.a(videoGL.o)
 .debug_loc     0x000190b8      0x2d9 c:/nds/devkitPro/libnds/lib\libnds9.a(dldi.o)
 .debug_loc     0x00019391      0x25a c:/nds/devkitPro/libnds/lib\libnds9.a(dsi_sd.o)
 .debug_loc     0x000195eb       0x1f c:/nds/devkitPro/libnds/lib\libnds9.a(initSystem.o)
 .debug_loc     0x0001960a      0x340 c:/nds/devkitPro/libnds/lib\libnds9.a(card.o)
 .debug_loc     0x0001994a     0x10f2 c:/nds/devkitPro/libnds/lib\libnds9.a(fifosystem.o)
 .debug_loc     0x0001aa3c      0x16a c:/nds/devkitPro/libnds/lib\libnds9.a(interrupts.o)
 .debug_loc     0x0001aba6       0x58 c:/nds/devkitPro/libnds/lib\libnds9.a(libnds_exit.arm.o)
 .debug_loc     0x0001abfe      0x3b8 c:/nds/devkitPro/libnds/lib\libnds9.a(background.o)
 .debug_loc     0x0001afb6      0x1cc c:/nds/devkitPro/libnds/lib\libnds9.a(dynamicArray.o)
 .debug_loc     0x0001b182      0x1ee c:/nds/devkitPro/libnds/lib\libnds9.a(system.o)

.debug_macinfo
 *(.debug_macinfo)

.debug_weaknames
 *(.debug_weaknames)

.debug_funcnames
 *(.debug_funcnames)

.debug_typenames
 *(.debug_typenames)

.debug_varnames
 *(.debug_varnames)

.stack          0x00080000        0x0
                0x00080000                _stack = .
 *(.stack)
LOAD c:/nds/devkitpro/devkitarm/bin/../lib/gcc/arm-none-eabi/4.8.2/../../../../arm-none-eabi/lib/thumb/ds_arm9_crt0.o
LOAD c:/nds/devkitpro/devkitarm/bin/../lib/gcc/arm-none-eabi/4.8.2/thumb/crti.o
LOAD c:/nds/devkitpro/devkitarm/bin/../lib/gcc/arm-none-eabi/4.8.2/thumb/crtbegin.o
LOAD Background.o
LOAD Engine.o
LOAD Input.o
LOAD Menu.o
LOAD Palette.o
LOAD Sprite.o
LOAD Text.o
LOAD main.o
LOAD c:/nds/Projects/Tutoriales/Tutorial1MenuInicial/nflib/lib\libnflib.a
LOAD c:/nds/devkitPro/libnds/lib\libfilesystem.a
LOAD c:/nds/devkitPro/libnds/lib\libfat.a
LOAD c:/nds/devkitPro/libnds/lib\libnds9.a
LOAD c:/nds/devkitpro/devkitarm/bin/../lib/gcc/arm-none-eabi/4.8.2/../../../../arm-none-eabi/lib/thumb\libstdc++.a
LOAD c:/nds/devkitpro/devkitarm/bin/../lib/gcc/arm-none-eabi/4.8.2/../../../../arm-none-eabi/lib/thumb\libm.a
START GROUP
LOAD c:/nds/devkitpro/devkitarm/bin/../lib/gcc/arm-none-eabi/4.8.2/thumb\libgcc.a
LOAD c:/nds/devkitpro/devkitarm/bin/../lib/gcc/arm-none-eabi/4.8.2/../../../../arm-none-eabi/lib/thumb\libg.a
LOAD c:/nds/devkitpro/devkitarm/bin/../lib/gcc/arm-none-eabi/4.8.2/../../../../arm-none-eabi/lib/thumb\libc.a
LOAD c:/nds/devkitpro/devkitarm/bin/../lib/gcc/arm-none-eabi/4.8.2/../../../../arm-none-eabi/lib/thumb\libsysbase.a
END GROUP
LOAD c:/nds/devkitpro/devkitarm/bin/../lib/gcc/arm-none-eabi/4.8.2/thumb/crtend.o
LOAD c:/nds/devkitpro/devkitarm/bin/../lib/gcc/arm-none-eabi/4.8.2/thumb/crtn.o
OUTPUT(c:/nds/Projects/Tutoriales/Tutorial1MenuInicial/Exes/Tutorial1MenuInicial.elf elf32-littlearm)

.debug_ranges   0x00000000     0x1f78
 .debug_ranges  0x00000000       0x30 Input.o
 .debug_ranges  0x00000030       0x20 Text.o
 .debug_ranges  0x00000050       0x10 main.o
 .debug_ranges  0x00000060       0x20 c:/nds/Projects/Tutoriales/Tutorial1MenuInicial/nflib/lib\libnflib.a(nf_2d.o)
 .debug_ranges  0x00000080       0x78 c:/nds/Projects/Tutoriales/Tutorial1MenuInicial/nflib/lib\libnflib.a(nf_3d.o)
 .debug_ranges  0x000000f8       0x30 c:/nds/Projects/Tutoriales/Tutorial1MenuInicial/nflib/lib\libnflib.a(nf_basic.o)
 .debug_ranges  0x00000128       0xc8 c:/nds/Projects/Tutoriales/Tutorial1MenuInicial/nflib/lib\libnflib.a(nf_sprite256.o)
 .debug_ranges  0x000001f0      0x270 c:/nds/Projects/Tutoriales/Tutorial1MenuInicial/nflib/lib\libnflib.a(nf_sprite3d.o)
 .debug_ranges  0x00000460       0x30 c:/nds/Projects/Tutoriales/Tutorial1MenuInicial/nflib/lib\libnflib.a(nf_text.o)
 .debug_ranges  0x00000490       0xd8 c:/nds/Projects/Tutoriales/Tutorial1MenuInicial/nflib/lib\libnflib.a(nf_tiledbg.o)
 .debug_ranges  0x00000568      0x298 c:/nds/devkitPro/libnds/lib\libfilesystem.a(nitrofs.o)
 .debug_ranges  0x00000800       0x78 c:/nds/devkitPro/libnds/lib\libfat.a(libfat.o)
 .debug_ranges  0x00000878      0x1d0 c:/nds/devkitPro/libnds/lib\libfat.a(partition.o)
 .debug_ranges  0x00000a48      0x300 c:/nds/devkitPro/libnds/lib\libfat.a(directory.o)
 .debug_ranges  0x00000d48       0xa8 c:/nds/devkitPro/libnds/lib\libfat.a(fatdir.o)
 .debug_ranges  0x00000df0      0x2b8 c:/nds/devkitPro/libnds/lib\libfat.a(fatfile.o)
 .debug_ranges  0x000010a8       0x88 c:/nds/devkitPro/libnds/lib\libfat.a(file_allocation_table.o)
 .debug_ranges  0x00001130      0x210 c:/nds/devkitPro/libnds/lib\libnds9.a(console.o)
 .debug_ranges  0x00001340       0x50 c:/nds/devkitPro/libnds/lib\libnds9.a(sprite.o)
 .debug_ranges  0x00001390       0x68 c:/nds/devkitPro/libnds/lib\libnds9.a(sprite_alloc.o)
 .debug_ranges  0x000013f8       0x38 c:/nds/devkitPro/libnds/lib\libnds9.a(trig.o)
 .debug_ranges  0x00001430       0x48 c:/nds/devkitPro/libnds/lib\libnds9.a(video.o)
 .debug_ranges  0x00001478      0x650 c:/nds/devkitPro/libnds/lib\libnds9.a(videoGL.o)
 .debug_ranges  0x00001ac8       0x18 c:/nds/devkitPro/libnds/lib\libnds9.a(dldi.o)
 .debug_ranges  0x00001ae0       0x30 c:/nds/devkitPro/libnds/lib\libnds9.a(card.o)
 .debug_ranges  0x00001b10      0x378 c:/nds/devkitPro/libnds/lib\libnds9.a(fifosystem.o)
 .debug_ranges  0x00001e88       0xa8 c:/nds/devkitPro/libnds/lib\libnds9.a(interrupts.o)
 .debug_ranges  0x00001f30       0x48 c:/nds/devkitPro/libnds/lib\libnds9.a(background.o)
